Archive member included to satisfy reference by file (symbol)

/opt/gcc-arm-none-eabi-10.3-2021.10/bin/../lib/gcc/arm-none-eabi/10.3.1/thumb/v6-m/nofp/libgcc.a(_dvmd_tls.o)
                              CMakeFiles/cube_robot.dir/home/wang/pico2/pico-sdk/src/rp2_common/pico_divider/divider.S.obj (__aeabi_idiv0)
/opt/gcc-arm-none-eabi-10.3-2021.10/bin/../lib/gcc/arm-none-eabi/10.3.1/../../../../arm-none-eabi/lib/thumb/v6-m/nofp/libc.a(lib_a-calloc.o)
                              CMakeFiles/cube_robot.dir/home/wang/pico2/pico-sdk/src/rp2_common/pico_malloc/pico_malloc.c.obj (calloc)
/opt/gcc-arm-none-eabi-10.3-2021.10/bin/../lib/gcc/arm-none-eabi/10.3.1/../../../../arm-none-eabi/lib/thumb/v6-m/nofp/libc.a(lib_a-callocr.o)
                              /opt/gcc-arm-none-eabi-10.3-2021.10/bin/../lib/gcc/arm-none-eabi/10.3.1/../../../../arm-none-eabi/lib/thumb/v6-m/nofp/libc.a(lib_a-calloc.o) (_calloc_r)
/opt/gcc-arm-none-eabi-10.3-2021.10/bin/../lib/gcc/arm-none-eabi/10.3.1/../../../../arm-none-eabi/lib/thumb/v6-m/nofp/libc.a(lib_a-errno.o)
                              /opt/gcc-arm-none-eabi-10.3-2021.10/bin/../lib/gcc/arm-none-eabi/10.3.1/../../../../arm-none-eabi/lib/thumb/v6-m/nofp/libc.a(lib_a-callocr.o) (__errno)
/opt/gcc-arm-none-eabi-10.3-2021.10/bin/../lib/gcc/arm-none-eabi/10.3.1/../../../../arm-none-eabi/lib/thumb/v6-m/nofp/libc.a(lib_a-impure.o)
                              /opt/gcc-arm-none-eabi-10.3-2021.10/bin/../lib/gcc/arm-none-eabi/10.3.1/../../../../arm-none-eabi/lib/thumb/v6-m/nofp/libc.a(lib_a-calloc.o) (_impure_ptr)
/opt/gcc-arm-none-eabi-10.3-2021.10/bin/../lib/gcc/arm-none-eabi/10.3.1/../../../../arm-none-eabi/lib/thumb/v6-m/nofp/libc.a(lib_a-init.o)
                              /opt/gcc-arm-none-eabi-10.3-2021.10/bin/../lib/gcc/arm-none-eabi/10.3.1/../../../../arm-none-eabi/lib/thumb/v6-m/nofp/crt0.o (__libc_init_array)
/opt/gcc-arm-none-eabi-10.3-2021.10/bin/../lib/gcc/arm-none-eabi/10.3.1/../../../../arm-none-eabi/lib/thumb/v6-m/nofp/libc.a(lib_a-malloc.o)
                              CMakeFiles/cube_robot.dir/home/wang/pico2/pico-sdk/src/rp2_common/pico_malloc/pico_malloc.c.obj (malloc)
/opt/gcc-arm-none-eabi-10.3-2021.10/bin/../lib/gcc/arm-none-eabi/10.3.1/../../../../arm-none-eabi/lib/thumb/v6-m/nofp/libc.a(lib_a-mallocr.o)
                              /opt/gcc-arm-none-eabi-10.3-2021.10/bin/../lib/gcc/arm-none-eabi/10.3.1/../../../../arm-none-eabi/lib/thumb/v6-m/nofp/libc.a(lib_a-callocr.o) (_malloc_r)
/opt/gcc-arm-none-eabi-10.3-2021.10/bin/../lib/gcc/arm-none-eabi/10.3.1/../../../../arm-none-eabi/lib/thumb/v6-m/nofp/libc.a(lib_a-mlock.o)
                              /opt/gcc-arm-none-eabi-10.3-2021.10/bin/../lib/gcc/arm-none-eabi/10.3.1/../../../../arm-none-eabi/lib/thumb/v6-m/nofp/libc.a(lib_a-mallocr.o) (__malloc_lock)
/opt/gcc-arm-none-eabi-10.3-2021.10/bin/../lib/gcc/arm-none-eabi/10.3.1/../../../../arm-none-eabi/lib/thumb/v6-m/nofp/libc.a(lib_a-realloc.o)
                              CMakeFiles/cube_robot.dir/home/wang/pico2/pico-sdk/src/rp2_common/pico_malloc/pico_malloc.c.obj (realloc)
/opt/gcc-arm-none-eabi-10.3-2021.10/bin/../lib/gcc/arm-none-eabi/10.3.1/../../../../arm-none-eabi/lib/thumb/v6-m/nofp/libc.a(lib_a-reallocr.o)
                              /opt/gcc-arm-none-eabi-10.3-2021.10/bin/../lib/gcc/arm-none-eabi/10.3.1/../../../../arm-none-eabi/lib/thumb/v6-m/nofp/libc.a(lib_a-realloc.o) (_realloc_r)
/opt/gcc-arm-none-eabi-10.3-2021.10/bin/../lib/gcc/arm-none-eabi/10.3.1/../../../../arm-none-eabi/lib/thumb/v6-m/nofp/libc.a(lib_a-sbrkr.o)
                              /opt/gcc-arm-none-eabi-10.3-2021.10/bin/../lib/gcc/arm-none-eabi/10.3.1/../../../../arm-none-eabi/lib/thumb/v6-m/nofp/libc.a(lib_a-mallocr.o) (_sbrk_r)
/opt/gcc-arm-none-eabi-10.3-2021.10/bin/../lib/gcc/arm-none-eabi/10.3.1/../../../../arm-none-eabi/lib/thumb/v6-m/nofp/libc.a(lib_a-strcmp.o)
                              CMakeFiles/cube_robot.dir/OLED.c.obj (strcmp)
/opt/gcc-arm-none-eabi-10.3-2021.10/bin/../lib/gcc/arm-none-eabi/10.3.1/../../../../arm-none-eabi/lib/thumb/v6-m/nofp/libc.a(lib_a-strlen-stub.o)
                              CMakeFiles/cube_robot.dir/home/wang/pico2/pico-sdk/src/rp2_common/pico_stdio/stdio.c.obj (strlen)
/opt/gcc-arm-none-eabi-10.3-2021.10/bin/../lib/gcc/arm-none-eabi/10.3.1/../../../../arm-none-eabi/lib/thumb/v6-m/nofp/libc.a(lib_a-vsprintf.o)
                              CMakeFiles/cube_robot.dir/OLED.c.obj (vsprintf)
/opt/gcc-arm-none-eabi-10.3-2021.10/bin/../lib/gcc/arm-none-eabi/10.3.1/../../../../arm-none-eabi/lib/thumb/v6-m/nofp/libc.a(lib_a-freer.o)
                              /opt/gcc-arm-none-eabi-10.3-2021.10/bin/../lib/gcc/arm-none-eabi/10.3.1/../../../../arm-none-eabi/lib/thumb/v6-m/nofp/libc.a(lib_a-malloc.o) (_free_r)
/opt/gcc-arm-none-eabi-10.3-2021.10/bin/../lib/gcc/arm-none-eabi/10.3.1/../../../../arm-none-eabi/lib/thumb/v6-m/nofp/libc.a(lib_a-lock.o)
                              /opt/gcc-arm-none-eabi-10.3-2021.10/bin/../lib/gcc/arm-none-eabi/10.3.1/../../../../arm-none-eabi/lib/thumb/v6-m/nofp/libc.a(lib_a-mlock.o) (__retarget_lock_acquire_recursive)
/opt/gcc-arm-none-eabi-10.3-2021.10/bin/../lib/gcc/arm-none-eabi/10.3.1/../../../../arm-none-eabi/lib/thumb/v6-m/nofp/libc.a(lib_a-memmove.o)
                              /opt/gcc-arm-none-eabi-10.3-2021.10/bin/../lib/gcc/arm-none-eabi/10.3.1/../../../../arm-none-eabi/lib/thumb/v6-m/nofp/libc.a(lib_a-reallocr.o) (memmove)
/opt/gcc-arm-none-eabi-10.3-2021.10/bin/../lib/gcc/arm-none-eabi/10.3.1/../../../../arm-none-eabi/lib/thumb/v6-m/nofp/libc.a(lib_a-reent.o)
                              /opt/gcc-arm-none-eabi-10.3-2021.10/bin/../lib/gcc/arm-none-eabi/10.3.1/../../../../arm-none-eabi/lib/thumb/v6-m/nofp/libc.a(lib_a-sbrkr.o) (errno)
/opt/gcc-arm-none-eabi-10.3-2021.10/bin/../lib/gcc/arm-none-eabi/10.3.1/../../../../arm-none-eabi/lib/thumb/v6-m/nofp/libc.a(lib_a-svfprintf.o)
                              /opt/gcc-arm-none-eabi-10.3-2021.10/bin/../lib/gcc/arm-none-eabi/10.3.1/../../../../arm-none-eabi/lib/thumb/v6-m/nofp/libc.a(lib_a-vsprintf.o) (_svfprintf_r)
/opt/gcc-arm-none-eabi-10.3-2021.10/bin/../lib/gcc/arm-none-eabi/10.3.1/../../../../arm-none-eabi/lib/thumb/v6-m/nofp/libc.a(lib_a-dtoa.o)
                              /opt/gcc-arm-none-eabi-10.3-2021.10/bin/../lib/gcc/arm-none-eabi/10.3.1/../../../../arm-none-eabi/lib/thumb/v6-m/nofp/libc.a(lib_a-svfprintf.o) (_dtoa_r)
/opt/gcc-arm-none-eabi-10.3-2021.10/bin/../lib/gcc/arm-none-eabi/10.3.1/../../../../arm-none-eabi/lib/thumb/v6-m/nofp/libc.a(lib_a-localeconv.o)
                              /opt/gcc-arm-none-eabi-10.3-2021.10/bin/../lib/gcc/arm-none-eabi/10.3.1/../../../../arm-none-eabi/lib/thumb/v6-m/nofp/libc.a(lib_a-svfprintf.o) (_localeconv_r)
/opt/gcc-arm-none-eabi-10.3-2021.10/bin/../lib/gcc/arm-none-eabi/10.3.1/../../../../arm-none-eabi/lib/thumb/v6-m/nofp/libc.a(lib_a-memchr-stub.o)
                              /opt/gcc-arm-none-eabi-10.3-2021.10/bin/../lib/gcc/arm-none-eabi/10.3.1/../../../../arm-none-eabi/lib/thumb/v6-m/nofp/libc.a(lib_a-svfprintf.o) (memchr)
/opt/gcc-arm-none-eabi-10.3-2021.10/bin/../lib/gcc/arm-none-eabi/10.3.1/../../../../arm-none-eabi/lib/thumb/v6-m/nofp/libc.a(lib_a-mprec.o)
                              /opt/gcc-arm-none-eabi-10.3-2021.10/bin/../lib/gcc/arm-none-eabi/10.3.1/../../../../arm-none-eabi/lib/thumb/v6-m/nofp/libc.a(lib_a-dtoa.o) (_Balloc)
/opt/gcc-arm-none-eabi-10.3-2021.10/bin/../lib/gcc/arm-none-eabi/10.3.1/../../../../arm-none-eabi/lib/thumb/v6-m/nofp/libc.a(lib_a-s_frexp.o)
                              /opt/gcc-arm-none-eabi-10.3-2021.10/bin/../lib/gcc/arm-none-eabi/10.3.1/../../../../arm-none-eabi/lib/thumb/v6-m/nofp/libc.a(lib_a-svfprintf.o) (frexp)
/opt/gcc-arm-none-eabi-10.3-2021.10/bin/../lib/gcc/arm-none-eabi/10.3.1/../../../../arm-none-eabi/lib/thumb/v6-m/nofp/libc.a(lib_a-strncpy.o)
                              /opt/gcc-arm-none-eabi-10.3-2021.10/bin/../lib/gcc/arm-none-eabi/10.3.1/../../../../arm-none-eabi/lib/thumb/v6-m/nofp/libc.a(lib_a-svfprintf.o) (strncpy)
/opt/gcc-arm-none-eabi-10.3-2021.10/bin/../lib/gcc/arm-none-eabi/10.3.1/../../../../arm-none-eabi/lib/thumb/v6-m/nofp/libc.a(lib_a-svfiprintf.o)
                              /opt/gcc-arm-none-eabi-10.3-2021.10/bin/../lib/gcc/arm-none-eabi/10.3.1/../../../../arm-none-eabi/lib/thumb/v6-m/nofp/libc.a(lib_a-svfprintf.o) (__ssprint_r)
/opt/gcc-arm-none-eabi-10.3-2021.10/bin/../lib/gcc/arm-none-eabi/10.3.1/../../../../arm-none-eabi/lib/thumb/v6-m/nofp/libc.a(lib_a-locale.o)
                              /opt/gcc-arm-none-eabi-10.3-2021.10/bin/../lib/gcc/arm-none-eabi/10.3.1/../../../../arm-none-eabi/lib/thumb/v6-m/nofp/libc.a(lib_a-localeconv.o) (__global_locale)
/opt/gcc-arm-none-eabi-10.3-2021.10/bin/../lib/gcc/arm-none-eabi/10.3.1/../../../../arm-none-eabi/lib/thumb/v6-m/nofp/libc.a(lib_a-mbtowc_r.o)
                              /opt/gcc-arm-none-eabi-10.3-2021.10/bin/../lib/gcc/arm-none-eabi/10.3.1/../../../../arm-none-eabi/lib/thumb/v6-m/nofp/libc.a(lib_a-locale.o) (__ascii_mbtowc)
/opt/gcc-arm-none-eabi-10.3-2021.10/bin/../lib/gcc/arm-none-eabi/10.3.1/../../../../arm-none-eabi/lib/thumb/v6-m/nofp/libc.a(lib_a-wctomb_r.o)
                              /opt/gcc-arm-none-eabi-10.3-2021.10/bin/../lib/gcc/arm-none-eabi/10.3.1/../../../../arm-none-eabi/lib/thumb/v6-m/nofp/libc.a(lib_a-locale.o) (__ascii_wctomb)
/opt/gcc-arm-none-eabi-10.3-2021.10/bin/../lib/gcc/arm-none-eabi/10.3.1/../../../../arm-none-eabi/lib/thumb/v6-m/nofp/libc.a(lib_a-ctype_.o)
                              /opt/gcc-arm-none-eabi-10.3-2021.10/bin/../lib/gcc/arm-none-eabi/10.3.1/../../../../arm-none-eabi/lib/thumb/v6-m/nofp/libc.a(lib_a-locale.o) (_ctype_)

Discarded input sections

 .text          0x0000000000000000        0x0 /opt/gcc-arm-none-eabi-10.3-2021.10/bin/../lib/gcc/arm-none-eabi/10.3.1/thumb/v6-m/nofp/crti.o
 .data          0x0000000000000000        0x0 /opt/gcc-arm-none-eabi-10.3-2021.10/bin/../lib/gcc/arm-none-eabi/10.3.1/thumb/v6-m/nofp/crti.o
 .bss           0x0000000000000000        0x0 /opt/gcc-arm-none-eabi-10.3-2021.10/bin/../lib/gcc/arm-none-eabi/10.3.1/thumb/v6-m/nofp/crti.o
 .data          0x0000000000000000        0x4 /opt/gcc-arm-none-eabi-10.3-2021.10/bin/../lib/gcc/arm-none-eabi/10.3.1/thumb/v6-m/nofp/crtbegin.o
 .rodata        0x0000000000000000       0x24 /opt/gcc-arm-none-eabi-10.3-2021.10/bin/../lib/gcc/arm-none-eabi/10.3.1/thumb/v6-m/nofp/crtbegin.o
 .fini_array    0x0000000000000000        0x4 /opt/gcc-arm-none-eabi-10.3-2021.10/bin/../lib/gcc/arm-none-eabi/10.3.1/thumb/v6-m/nofp/crtbegin.o
 .text          0x0000000000000000       0x80 /opt/gcc-arm-none-eabi-10.3-2021.10/bin/../lib/gcc/arm-none-eabi/10.3.1/../../../../arm-none-eabi/lib/thumb/v6-m/nofp/crt0.o
 .data          0x0000000000000000        0x0 /opt/gcc-arm-none-eabi-10.3-2021.10/bin/../lib/gcc/arm-none-eabi/10.3.1/../../../../arm-none-eabi/lib/thumb/v6-m/nofp/crt0.o
 .bss           0x0000000000000000        0x0 /opt/gcc-arm-none-eabi-10.3-2021.10/bin/../lib/gcc/arm-none-eabi/10.3.1/../../../../arm-none-eabi/lib/thumb/v6-m/nofp/crt0.o
 .ARM.extab     0x0000000000000000        0x0 /opt/gcc-arm-none-eabi-10.3-2021.10/bin/../lib/gcc/arm-none-eabi/10.3.1/../../../../arm-none-eabi/lib/thumb/v6-m/nofp/crt0.o
 .ARM.exidx     0x0000000000000000       0x10 /opt/gcc-arm-none-eabi-10.3-2021.10/bin/../lib/gcc/arm-none-eabi/10.3.1/../../../../arm-none-eabi/lib/thumb/v6-m/nofp/crt0.o
 .ARM.attributes
                0x0000000000000000       0x1b /opt/gcc-arm-none-eabi-10.3-2021.10/bin/../lib/gcc/arm-none-eabi/10.3.1/../../../../arm-none-eabi/lib/thumb/v6-m/nofp/crt0.o
 .text          0x0000000000000000        0x0 CMakeFiles/cube_robot.dir/cube_robot.c.obj
 .data          0x0000000000000000        0x0 CMakeFiles/cube_robot.dir/cube_robot.c.obj
 .bss           0x0000000000000000        0x0 CMakeFiles/cube_robot.dir/cube_robot.c.obj
 .text.stepper_move
                0x0000000000000000      0x370 CMakeFiles/cube_robot.dir/cube_robot.c.obj
 .text.LED_Set  0x0000000000000000       0xb0 CMakeFiles/cube_robot.dir/cube_robot.c.obj
 .text.flip_cube
                0x0000000000000000      0x170 CMakeFiles/cube_robot.dir/cube_robot.c.obj
 .text.i2c_start
                0x0000000000000000       0x54 CMakeFiles/cube_robot.dir/cube_robot.c.obj
 .text.i2c_stop
                0x0000000000000000       0x48 CMakeFiles/cube_robot.dir/cube_robot.c.obj
 .text.tcs3472_check_id
                0x0000000000000000       0xd8 CMakeFiles/cube_robot.dir/cube_robot.c.obj
 .text.tcs3472_dump
                0x0000000000000000      0x12c CMakeFiles/cube_robot.dir/cube_robot.c.obj
 .text          0x0000000000000000        0x0 CMakeFiles/cube_robot.dir/color_detect.c.obj
 .data          0x0000000000000000        0x0 CMakeFiles/cube_robot.dir/color_detect.c.obj
 .bss           0x0000000000000000        0x0 CMakeFiles/cube_robot.dir/color_detect.c.obj
 .text          0x0000000000000000        0x0 CMakeFiles/cube_robot.dir/prun_table.c.obj
 .data          0x0000000000000000        0x0 CMakeFiles/cube_robot.dir/prun_table.c.obj
 .bss           0x0000000000000000        0x0 CMakeFiles/cube_robot.dir/prun_table.c.obj
 .text          0x0000000000000000        0x0 CMakeFiles/cube_robot.dir/solve.c.obj
 .data          0x0000000000000000        0x0 CMakeFiles/cube_robot.dir/solve.c.obj
 .bss           0x0000000000000000        0x0 CMakeFiles/cube_robot.dir/solve.c.obj
 .text.cube_to_face_54
                0x0000000000000000      0x284 CMakeFiles/cube_robot.dir/solve.c.obj
 .text.cube_route
                0x0000000000000000      0x228 CMakeFiles/cube_robot.dir/solve.c.obj
 .text.cube_route_str
                0x0000000000000000       0x80 CMakeFiles/cube_robot.dir/solve.c.obj
 .text.encode_4P4
                0x0000000000000000       0x40 CMakeFiles/cube_robot.dir/solve.c.obj
 .text.encode_3P3
                0x0000000000000000       0x24 CMakeFiles/cube_robot.dir/solve.c.obj
 .text.encode_4P2
                0x0000000000000000       0x1c CMakeFiles/cube_robot.dir/solve.c.obj
 .text.get_combinations
                0x0000000000000000       0x24 CMakeFiles/cube_robot.dir/solve.c.obj
 .text.encode_12C4_8_to_11
                0x0000000000000000      0x204 CMakeFiles/cube_robot.dir/solve.c.obj
 .text.encode_8C4_1346
                0x0000000000000000      0x134 CMakeFiles/cube_robot.dir/solve.c.obj
 .text.encode_8C4_1357
                0x0000000000000000      0x140 CMakeFiles/cube_robot.dir/solve.c.obj
 .text.cube_estimate
                0x0000000000000000       0x64 CMakeFiles/cube_robot.dir/solve.c.obj
 .text          0x0000000000000000        0x0 CMakeFiles/cube_robot.dir/OLED.c.obj
 .data          0x0000000000000000        0x0 CMakeFiles/cube_robot.dir/OLED.c.obj
 .bss           0x0000000000000000        0x0 CMakeFiles/cube_robot.dir/OLED.c.obj
 .text.OLED_W_SCL
                0x0000000000000000       0x20 CMakeFiles/cube_robot.dir/OLED.c.obj
 .text.OLED_W_SDA
                0x0000000000000000       0x20 CMakeFiles/cube_robot.dir/OLED.c.obj
 .text.OLED_GPIO_Init
                0x0000000000000000       0x34 CMakeFiles/cube_robot.dir/OLED.c.obj
 .text.OLED_I2C_Start
                0x0000000000000000       0x38 CMakeFiles/cube_robot.dir/OLED.c.obj
 .text.OLED_I2C_Stop
                0x0000000000000000       0x30 CMakeFiles/cube_robot.dir/OLED.c.obj
 .text.OLED_I2C_SendByte
                0x0000000000000000       0x78 CMakeFiles/cube_robot.dir/OLED.c.obj
 .text.OLED_WriteData
                0x0000000000000000      0x1bc CMakeFiles/cube_robot.dir/OLED.c.obj
 .text.OLED_SetCursor
                0x0000000000000000       0x20 CMakeFiles/cube_robot.dir/OLED.c.obj
 .text.OLED_Pow
                0x0000000000000000       0x14 CMakeFiles/cube_robot.dir/OLED.c.obj
 .text.OLED_pnpoly
                0x0000000000000000       0x9c CMakeFiles/cube_robot.dir/OLED.c.obj
 .text.OLED_IsInAngle
                0x0000000000000000       0x68 CMakeFiles/cube_robot.dir/OLED.c.obj
 .text.OLED_UpdateArea
                0x0000000000000000      0x228 CMakeFiles/cube_robot.dir/OLED.c.obj
 .text.OLED_ClearArea
                0x0000000000000000       0x88 CMakeFiles/cube_robot.dir/OLED.c.obj
 .text.OLED_Reverse
                0x0000000000000000       0x24 CMakeFiles/cube_robot.dir/OLED.c.obj
 .text.OLED_ReverseArea
                0x0000000000000000       0x88 CMakeFiles/cube_robot.dir/OLED.c.obj
 .text.OLED_ShowString
                0x0000000000000000      0x730 CMakeFiles/cube_robot.dir/OLED.c.obj
 .text.OLED_ShowNum
                0x0000000000000000      0x7ac CMakeFiles/cube_robot.dir/OLED.c.obj
 .text.OLED_ShowSignedNum
                0x0000000000000000      0x7cc CMakeFiles/cube_robot.dir/OLED.c.obj
 .text.OLED_ShowHexNum
                0x0000000000000000      0xe6c CMakeFiles/cube_robot.dir/OLED.c.obj
 .text.OLED_ShowBinNum
                0x0000000000000000      0x7a8 CMakeFiles/cube_robot.dir/OLED.c.obj
 .text.OLED_ShowFloatNum
                0x0000000000000000     0x10c0 CMakeFiles/cube_robot.dir/OLED.c.obj
 .text.OLED_ShowChinese
                0x0000000000000000      0x524 CMakeFiles/cube_robot.dir/OLED.c.obj
 .text.OLED_ShowImage
                0x0000000000000000      0x17c CMakeFiles/cube_robot.dir/OLED.c.obj
 .text.OLED_DrawPoint
                0x0000000000000000       0x28 CMakeFiles/cube_robot.dir/OLED.c.obj
 .text.OLED_GetPoint
                0x0000000000000000       0x2c CMakeFiles/cube_robot.dir/OLED.c.obj
 .text.OLED_DrawLine
                0x0000000000000000      0x29c CMakeFiles/cube_robot.dir/OLED.c.obj
 .text.OLED_DrawRectangle
                0x0000000000000000      0x244 CMakeFiles/cube_robot.dir/OLED.c.obj
 .text.OLED_DrawTriangle
                0x0000000000000000      0x26c CMakeFiles/cube_robot.dir/OLED.c.obj
 .text.OLED_DrawCircle
                0x0000000000000000      0x510 CMakeFiles/cube_robot.dir/OLED.c.obj
 .text.OLED_DrawEllipse
                0x0000000000000000      0x73c CMakeFiles/cube_robot.dir/OLED.c.obj
 .text.OLED_DrawArc
                0x0000000000000000      0xeb4 CMakeFiles/cube_robot.dir/OLED.c.obj
 .text          0x0000000000000000        0x0 CMakeFiles/cube_robot.dir/OLED_Data.c.obj
 .data          0x0000000000000000        0x0 CMakeFiles/cube_robot.dir/OLED_Data.c.obj
 .bss           0x0000000000000000        0x0 CMakeFiles/cube_robot.dir/OLED_Data.c.obj
 .rodata.Diode  0x0000000000000000       0x20 CMakeFiles/cube_robot.dir/OLED_Data.c.obj
 .rodata.OLED_CF16x16
                0x0000000000000000       0xfc CMakeFiles/cube_robot.dir/OLED_Data.c.obj
 .text          0x0000000000000000        0x0 CMakeFiles/cube_robot.dir/home/wang/pico2/pico-sdk/src/rp2_common/pico_stdlib/stdlib.c.obj
 .data          0x0000000000000000        0x0 CMakeFiles/cube_robot.dir/home/wang/pico2/pico-sdk/src/rp2_common/pico_stdlib/stdlib.c.obj
 .bss           0x0000000000000000        0x0 CMakeFiles/cube_robot.dir/home/wang/pico2/pico-sdk/src/rp2_common/pico_stdlib/stdlib.c.obj
 .text.set_sys_clock_48mhz
                0x0000000000000000       0x40 CMakeFiles/cube_robot.dir/home/wang/pico2/pico-sdk/src/rp2_common/pico_stdlib/stdlib.c.obj
 .text.set_sys_clock_pll
                0x0000000000000000       0x78 CMakeFiles/cube_robot.dir/home/wang/pico2/pico-sdk/src/rp2_common/pico_stdlib/stdlib.c.obj
 .text.check_sys_clock_khz
                0x0000000000000000      0x17c CMakeFiles/cube_robot.dir/home/wang/pico2/pico-sdk/src/rp2_common/pico_stdlib/stdlib.c.obj
 .text.setup_default_uart
                0x0000000000000000       0x2c CMakeFiles/cube_robot.dir/home/wang/pico2/pico-sdk/src/rp2_common/pico_stdlib/stdlib.c.obj
 .binary_info.__bi_ptr118
                0x0000000000000000        0x4 CMakeFiles/cube_robot.dir/home/wang/pico2/pico-sdk/src/rp2_common/pico_stdlib/stdlib.c.obj
 .rodata.__bi_118.0
                0x0000000000000000        0x8 CMakeFiles/cube_robot.dir/home/wang/pico2/pico-sdk/src/rp2_common/pico_stdlib/stdlib.c.obj
 .comment       0x0000000000000000       0x4a CMakeFiles/cube_robot.dir/home/wang/pico2/pico-sdk/src/rp2_common/pico_stdlib/stdlib.c.obj
 .ARM.attributes
                0x0000000000000000       0x2c CMakeFiles/cube_robot.dir/home/wang/pico2/pico-sdk/src/rp2_common/pico_stdlib/stdlib.c.obj
 .text          0x0000000000000000        0x0 CMakeFiles/cube_robot.dir/home/wang/pico2/pico-sdk/src/rp2_common/hardware_gpio/gpio.c.obj
 .data          0x0000000000000000        0x0 CMakeFiles/cube_robot.dir/home/wang/pico2/pico-sdk/src/rp2_common/hardware_gpio/gpio.c.obj
 .bss           0x0000000000000000        0x0 CMakeFiles/cube_robot.dir/home/wang/pico2/pico-sdk/src/rp2_common/hardware_gpio/gpio.c.obj
 .text.gpio_default_irq_handler
                0x0000000000000000      0x248 CMakeFiles/cube_robot.dir/home/wang/pico2/pico-sdk/src/rp2_common/hardware_gpio/gpio.c.obj
 .text.gpio_get_pad
                0x0000000000000000       0x28 CMakeFiles/cube_robot.dir/home/wang/pico2/pico-sdk/src/rp2_common/hardware_gpio/gpio.c.obj
 .text.gpio_set_function
                0x0000000000000000       0x30 CMakeFiles/cube_robot.dir/home/wang/pico2/pico-sdk/src/rp2_common/hardware_gpio/gpio.c.obj
 .text.gpio_get_function
                0x0000000000000000       0x14 CMakeFiles/cube_robot.dir/home/wang/pico2/pico-sdk/src/rp2_common/hardware_gpio/gpio.c.obj
 .text.gpio_set_irqover
                0x0000000000000000       0x24 CMakeFiles/cube_robot.dir/home/wang/pico2/pico-sdk/src/rp2_common/hardware_gpio/gpio.c.obj
 .text.gpio_set_inover
                0x0000000000000000       0x24 CMakeFiles/cube_robot.dir/home/wang/pico2/pico-sdk/src/rp2_common/hardware_gpio/gpio.c.obj
 .text.gpio_set_outover
                0x0000000000000000       0x24 CMakeFiles/cube_robot.dir/home/wang/pico2/pico-sdk/src/rp2_common/hardware_gpio/gpio.c.obj
 .text.gpio_set_oeover
                0x0000000000000000       0x24 CMakeFiles/cube_robot.dir/home/wang/pico2/pico-sdk/src/rp2_common/hardware_gpio/gpio.c.obj
 .text.gpio_set_input_hysteresis_enabled
                0x0000000000000000       0x28 CMakeFiles/cube_robot.dir/home/wang/pico2/pico-sdk/src/rp2_common/hardware_gpio/gpio.c.obj
 .text.gpio_is_input_hysteresis_enabled
                0x0000000000000000       0x14 CMakeFiles/cube_robot.dir/home/wang/pico2/pico-sdk/src/rp2_common/hardware_gpio/gpio.c.obj
 .text.gpio_set_slew_rate
                0x0000000000000000       0x20 CMakeFiles/cube_robot.dir/home/wang/pico2/pico-sdk/src/rp2_common/hardware_gpio/gpio.c.obj
 .text.gpio_get_slew_rate
                0x0000000000000000       0x14 CMakeFiles/cube_robot.dir/home/wang/pico2/pico-sdk/src/rp2_common/hardware_gpio/gpio.c.obj
 .text.gpio_set_drive_strength
                0x0000000000000000       0x20 CMakeFiles/cube_robot.dir/home/wang/pico2/pico-sdk/src/rp2_common/hardware_gpio/gpio.c.obj
 .text.gpio_get_drive_strength
                0x0000000000000000       0x14 CMakeFiles/cube_robot.dir/home/wang/pico2/pico-sdk/src/rp2_common/hardware_gpio/gpio.c.obj
 .text.gpio_set_irq_enabled
                0x0000000000000000       0x54 CMakeFiles/cube_robot.dir/home/wang/pico2/pico-sdk/src/rp2_common/hardware_gpio/gpio.c.obj
 .text.gpio_set_irq_enabled_with_callback
                0x0000000000000000       0xb0 CMakeFiles/cube_robot.dir/home/wang/pico2/pico-sdk/src/rp2_common/hardware_gpio/gpio.c.obj
 .text.gpio_set_irq_callback
                0x0000000000000000       0x40 CMakeFiles/cube_robot.dir/home/wang/pico2/pico-sdk/src/rp2_common/hardware_gpio/gpio.c.obj
 .text.gpio_add_raw_irq_handler_with_order_priority_masked
                0x0000000000000000       0x44 CMakeFiles/cube_robot.dir/home/wang/pico2/pico-sdk/src/rp2_common/hardware_gpio/gpio.c.obj
 .text.gpio_add_raw_irq_handler_masked
                0x0000000000000000       0x38 CMakeFiles/cube_robot.dir/home/wang/pico2/pico-sdk/src/rp2_common/hardware_gpio/gpio.c.obj
 .text.gpio_remove_raw_irq_handler_masked
                0x0000000000000000       0x20 CMakeFiles/cube_robot.dir/home/wang/pico2/pico-sdk/src/rp2_common/hardware_gpio/gpio.c.obj
 .text.gpio_set_dormant_irq_enabled
                0x0000000000000000       0x40 CMakeFiles/cube_robot.dir/home/wang/pico2/pico-sdk/src/rp2_common/hardware_gpio/gpio.c.obj
 .text.gpio_acknowledge_irq
                0x0000000000000000       0x1c CMakeFiles/cube_robot.dir/home/wang/pico2/pico-sdk/src/rp2_common/hardware_gpio/gpio.c.obj
 .text.gpio_debug_pins_init
                0x0000000000000000       0x7c CMakeFiles/cube_robot.dir/home/wang/pico2/pico-sdk/src/rp2_common/hardware_gpio/gpio.c.obj
 .text.gpio_set_input_enabled
                0x0000000000000000       0x28 CMakeFiles/cube_robot.dir/home/wang/pico2/pico-sdk/src/rp2_common/hardware_gpio/gpio.c.obj
 .text.gpio_deinit
                0x0000000000000000       0x30 CMakeFiles/cube_robot.dir/home/wang/pico2/pico-sdk/src/rp2_common/hardware_gpio/gpio.c.obj
 .text.gpio_init_mask
                0x0000000000000000       0x68 CMakeFiles/cube_robot.dir/home/wang/pico2/pico-sdk/src/rp2_common/hardware_gpio/gpio.c.obj
 .bss.callbacks
                0x0000000000000000        0x8 CMakeFiles/cube_robot.dir/home/wang/pico2/pico-sdk/src/rp2_common/hardware_gpio/gpio.c.obj
 .bss.raw_irq_mask
                0x0000000000000000        0x8 CMakeFiles/cube_robot.dir/home/wang/pico2/pico-sdk/src/rp2_common/hardware_gpio/gpio.c.obj
 .text          0x0000000000000000        0x0 CMakeFiles/cube_robot.dir/home/wang/pico2/pico-sdk/src/rp2_common/pico_platform/platform.c.obj
 .data          0x0000000000000000        0x0 CMakeFiles/cube_robot.dir/home/wang/pico2/pico-sdk/src/rp2_common/pico_platform/platform.c.obj
 .bss           0x0000000000000000        0x0 CMakeFiles/cube_robot.dir/home/wang/pico2/pico-sdk/src/rp2_common/pico_platform/platform.c.obj
 .text.rp2040_chip_version
                0x0000000000000000        0xc CMakeFiles/cube_robot.dir/home/wang/pico2/pico-sdk/src/rp2_common/pico_platform/platform.c.obj
 .text          0x0000000000000000        0x0 CMakeFiles/cube_robot.dir/home/wang/pico2/pico-sdk/src/rp2_common/hardware_claim/claim.c.obj
 .data          0x0000000000000000        0x0 CMakeFiles/cube_robot.dir/home/wang/pico2/pico-sdk/src/rp2_common/hardware_claim/claim.c.obj
 .bss           0x0000000000000000        0x0 CMakeFiles/cube_robot.dir/home/wang/pico2/pico-sdk/src/rp2_common/hardware_claim/claim.c.obj
 .text.hw_claim_lock
                0x0000000000000000       0x18 CMakeFiles/cube_robot.dir/home/wang/pico2/pico-sdk/src/rp2_common/hardware_claim/claim.c.obj
 .text.hw_claim_unlock
                0x0000000000000000       0x14 CMakeFiles/cube_robot.dir/home/wang/pico2/pico-sdk/src/rp2_common/hardware_claim/claim.c.obj
 .text.hw_is_claimed
                0x0000000000000000       0x18 CMakeFiles/cube_robot.dir/home/wang/pico2/pico-sdk/src/rp2_common/hardware_claim/claim.c.obj
 .text.hw_claim_clear
                0x0000000000000000       0x38 CMakeFiles/cube_robot.dir/home/wang/pico2/pico-sdk/src/rp2_common/hardware_claim/claim.c.obj
 .text          0x0000000000000000        0x0 CMakeFiles/cube_robot.dir/home/wang/pico2/pico-sdk/src/rp2_common/hardware_sync/sync.c.obj
 .data          0x0000000000000000        0x0 CMakeFiles/cube_robot.dir/home/wang/pico2/pico-sdk/src/rp2_common/hardware_sync/sync.c.obj
 .bss           0x0000000000000000        0x0 CMakeFiles/cube_robot.dir/home/wang/pico2/pico-sdk/src/rp2_common/hardware_sync/sync.c.obj
 .text.spin_lock_init
                0x0000000000000000       0x18 CMakeFiles/cube_robot.dir/home/wang/pico2/pico-sdk/src/rp2_common/hardware_sync/sync.c.obj
 .rodata.spin_lock_claim.str1.4
                0x0000000000000000       0x1f CMakeFiles/cube_robot.dir/home/wang/pico2/pico-sdk/src/rp2_common/hardware_sync/sync.c.obj
 .text.spin_lock_claim
                0x0000000000000000       0x18 CMakeFiles/cube_robot.dir/home/wang/pico2/pico-sdk/src/rp2_common/hardware_sync/sync.c.obj
 .text.spin_lock_claim_mask
                0x0000000000000000       0x40 CMakeFiles/cube_robot.dir/home/wang/pico2/pico-sdk/src/rp2_common/hardware_sync/sync.c.obj
 .text.spin_lock_unclaim
                0x0000000000000000       0x24 CMakeFiles/cube_robot.dir/home/wang/pico2/pico-sdk/src/rp2_common/hardware_sync/sync.c.obj
 .text.spin_lock_is_claimed
                0x0000000000000000       0x10 CMakeFiles/cube_robot.dir/home/wang/pico2/pico-sdk/src/rp2_common/hardware_sync/sync.c.obj
 .text          0x0000000000000000        0x0 CMakeFiles/cube_robot.dir/home/wang/pico2/pico-sdk/src/rp2_common/hardware_irq/irq.c.obj
 .data          0x0000000000000000        0x0 CMakeFiles/cube_robot.dir/home/wang/pico2/pico-sdk/src/rp2_common/hardware_irq/irq.c.obj
 .bss           0x0000000000000000        0x0 CMakeFiles/cube_robot.dir/home/wang/pico2/pico-sdk/src/rp2_common/hardware_irq/irq.c.obj
 .text.irq_set_mask_enabled
                0x0000000000000000       0x20 CMakeFiles/cube_robot.dir/home/wang/pico2/pico-sdk/src/rp2_common/hardware_irq/irq.c.obj
 .text.irq_get_exclusive_handler
                0x0000000000000000       0x50 CMakeFiles/cube_robot.dir/home/wang/pico2/pico-sdk/src/rp2_common/hardware_irq/irq.c.obj
 .text.irq_set_priority
                0x0000000000000000       0x28 CMakeFiles/cube_robot.dir/home/wang/pico2/pico-sdk/src/rp2_common/hardware_irq/irq.c.obj
 .text.irq_get_priority
                0x0000000000000000       0x20 CMakeFiles/cube_robot.dir/home/wang/pico2/pico-sdk/src/rp2_common/hardware_irq/irq.c.obj
 .rodata.user_irq_claim.str1.4
                0x0000000000000000       0x1c CMakeFiles/cube_robot.dir/home/wang/pico2/pico-sdk/src/rp2_common/hardware_irq/irq.c.obj
 .text.user_irq_claim
                0x0000000000000000       0x18 CMakeFiles/cube_robot.dir/home/wang/pico2/pico-sdk/src/rp2_common/hardware_irq/irq.c.obj
 .text.user_irq_unclaim
                0x0000000000000000       0x14 CMakeFiles/cube_robot.dir/home/wang/pico2/pico-sdk/src/rp2_common/hardware_irq/irq.c.obj
 .text.user_irq_is_claimed
                0x0000000000000000       0x14 CMakeFiles/cube_robot.dir/home/wang/pico2/pico-sdk/src/rp2_common/hardware_irq/irq.c.obj
 .text          0x0000000000000000        0x0 CMakeFiles/cube_robot.dir/home/wang/pico2/pico-sdk/src/rp2_common/hardware_irq/irq_handler_chain.S.obj
 .bss           0x0000000000000000        0x0 CMakeFiles/cube_robot.dir/home/wang/pico2/pico-sdk/src/rp2_common/hardware_irq/irq_handler_chain.S.obj
 .text          0x0000000000000000        0x0 CMakeFiles/cube_robot.dir/home/wang/pico2/pico-sdk/src/common/pico_sync/sem.c.obj
 .data          0x0000000000000000        0x0 CMakeFiles/cube_robot.dir/home/wang/pico2/pico-sdk/src/common/pico_sync/sem.c.obj
 .bss           0x0000000000000000        0x0 CMakeFiles/cube_robot.dir/home/wang/pico2/pico-sdk/src/common/pico_sync/sem.c.obj
 .text.sem_init
                0x0000000000000000       0x20 CMakeFiles/cube_robot.dir/home/wang/pico2/pico-sdk/src/common/pico_sync/sem.c.obj
 .time_critical.sem_available
                0x0000000000000000        0x8 CMakeFiles/cube_robot.dir/home/wang/pico2/pico-sdk/src/common/pico_sync/sem.c.obj
 .time_critical.sem_acquire_blocking
                0x0000000000000000       0x44 CMakeFiles/cube_robot.dir/home/wang/pico2/pico-sdk/src/common/pico_sync/sem.c.obj
 .time_critical.sem_acquire_timeout_ms
                0x0000000000000000       0x80 CMakeFiles/cube_robot.dir/home/wang/pico2/pico-sdk/src/common/pico_sync/sem.c.obj
 .time_critical.sem_acquire_timeout_us
                0x0000000000000000       0x74 CMakeFiles/cube_robot.dir/home/wang/pico2/pico-sdk/src/common/pico_sync/sem.c.obj
 .time_critical.sem_acquire_block_until
                0x0000000000000000       0x68 CMakeFiles/cube_robot.dir/home/wang/pico2/pico-sdk/src/common/pico_sync/sem.c.obj
 .time_critical.sem_try_acquire
                0x0000000000000000       0x44 CMakeFiles/cube_robot.dir/home/wang/pico2/pico-sdk/src/common/pico_sync/sem.c.obj
 .time_critical.sem_release
                0x0000000000000000       0x4c CMakeFiles/cube_robot.dir/home/wang/pico2/pico-sdk/src/common/pico_sync/sem.c.obj
 .time_critical.sem_reset
                0x0000000000000000       0x40 CMakeFiles/cube_robot.dir/home/wang/pico2/pico-sdk/src/common/pico_sync/sem.c.obj
 .comment       0x0000000000000000       0x4a CMakeFiles/cube_robot.dir/home/wang/pico2/pico-sdk/src/common/pico_sync/sem.c.obj
 .ARM.attributes
                0x0000000000000000       0x2c CMakeFiles/cube_robot.dir/home/wang/pico2/pico-sdk/src/common/pico_sync/sem.c.obj
 .text          0x0000000000000000        0x0 CMakeFiles/cube_robot.dir/home/wang/pico2/pico-sdk/src/common/pico_sync/lock_core.c.obj
 .data          0x0000000000000000        0x0 CMakeFiles/cube_robot.dir/home/wang/pico2/pico-sdk/src/common/pico_sync/lock_core.c.obj
 .bss           0x0000000000000000        0x0 CMakeFiles/cube_robot.dir/home/wang/pico2/pico-sdk/src/common/pico_sync/lock_core.c.obj
 .text          0x0000000000000000        0x0 CMakeFiles/cube_robot.dir/home/wang/pico2/pico-sdk/src/common/pico_sync/mutex.c.obj
 .data          0x0000000000000000        0x0 CMakeFiles/cube_robot.dir/home/wang/pico2/pico-sdk/src/common/pico_sync/mutex.c.obj
 .bss           0x0000000000000000        0x0 CMakeFiles/cube_robot.dir/home/wang/pico2/pico-sdk/src/common/pico_sync/mutex.c.obj
 .time_critical.mutex_enter_blocking
                0x0000000000000000       0x48 CMakeFiles/cube_robot.dir/home/wang/pico2/pico-sdk/src/common/pico_sync/mutex.c.obj
 .time_critical.recursive_mutex_enter_blocking
                0x0000000000000000       0x54 CMakeFiles/cube_robot.dir/home/wang/pico2/pico-sdk/src/common/pico_sync/mutex.c.obj
 .time_critical.recursive_mutex_try_enter
                0x0000000000000000       0x54 CMakeFiles/cube_robot.dir/home/wang/pico2/pico-sdk/src/common/pico_sync/mutex.c.obj
 .time_critical.recursive_mutex_enter_timeout_ms
                0x0000000000000000       0x9c CMakeFiles/cube_robot.dir/home/wang/pico2/pico-sdk/src/common/pico_sync/mutex.c.obj
 .time_critical.mutex_enter_timeout_us
                0x0000000000000000       0x80 CMakeFiles/cube_robot.dir/home/wang/pico2/pico-sdk/src/common/pico_sync/mutex.c.obj
 .time_critical.recursive_mutex_enter_timeout_us
                0x0000000000000000       0x90 CMakeFiles/cube_robot.dir/home/wang/pico2/pico-sdk/src/common/pico_sync/mutex.c.obj
 .time_critical.mutex_enter_block_until
                0x0000000000000000       0x74 CMakeFiles/cube_robot.dir/home/wang/pico2/pico-sdk/src/common/pico_sync/mutex.c.obj
 .time_critical.recursive_mutex_enter_block_until
                0x0000000000000000       0x80 CMakeFiles/cube_robot.dir/home/wang/pico2/pico-sdk/src/common/pico_sync/mutex.c.obj
 .time_critical.recursive_mutex_exit
                0x0000000000000000       0x44 CMakeFiles/cube_robot.dir/home/wang/pico2/pico-sdk/src/common/pico_sync/mutex.c.obj
 .text          0x0000000000000000        0x0 CMakeFiles/cube_robot.dir/home/wang/pico2/pico-sdk/src/common/pico_sync/critical_section.c.obj
 .data          0x0000000000000000        0x0 CMakeFiles/cube_robot.dir/home/wang/pico2/pico-sdk/src/common/pico_sync/critical_section.c.obj
 .bss           0x0000000000000000        0x0 CMakeFiles/cube_robot.dir/home/wang/pico2/pico-sdk/src/common/pico_sync/critical_section.c.obj
 .text.critical_section_deinit
                0x0000000000000000       0x1c CMakeFiles/cube_robot.dir/home/wang/pico2/pico-sdk/src/common/pico_sync/critical_section.c.obj
 .text          0x0000000000000000        0x0 CMakeFiles/cube_robot.dir/home/wang/pico2/pico-sdk/src/common/pico_time/time.c.obj
 .data          0x0000000000000000        0x0 CMakeFiles/cube_robot.dir/home/wang/pico2/pico-sdk/src/common/pico_time/time.c.obj
 .bss           0x0000000000000000        0x0 CMakeFiles/cube_robot.dir/home/wang/pico2/pico-sdk/src/common/pico_time/time.c.obj
 .text.repeating_timer_callback
                0x0000000000000000       0x1c CMakeFiles/cube_robot.dir/home/wang/pico2/pico-sdk/src/common/pico_time/time.c.obj
 .rodata.alarm_pool_dump_key.str1.4
                0x0000000000000000        0xf CMakeFiles/cube_robot.dir/home/wang/pico2/pico-sdk/src/common/pico_time/time.c.obj
 .text.alarm_pool_dump_key
                0x0000000000000000       0x34 CMakeFiles/cube_robot.dir/home/wang/pico2/pico-sdk/src/common/pico_time/time.c.obj
 .text.alarm_pool_create
                0x0000000000000000       0x74 CMakeFiles/cube_robot.dir/home/wang/pico2/pico-sdk/src/common/pico_time/time.c.obj
 .text.alarm_pool_create_with_unused_hardware_alarm
                0x0000000000000000       0x74 CMakeFiles/cube_robot.dir/home/wang/pico2/pico-sdk/src/common/pico_time/time.c.obj
 .text.alarm_pool_destroy
                0x0000000000000000       0x44 CMakeFiles/cube_robot.dir/home/wang/pico2/pico-sdk/src/common/pico_time/time.c.obj
 .text.alarm_pool_add_alarm_at_force_in_context
                0x0000000000000000      0x124 CMakeFiles/cube_robot.dir/home/wang/pico2/pico-sdk/src/common/pico_time/time.c.obj
 .text.alarm_pool_cancel_alarm
                0x0000000000000000       0x78 CMakeFiles/cube_robot.dir/home/wang/pico2/pico-sdk/src/common/pico_time/time.c.obj
 .text.alarm_pool_hardware_alarm_num
                0x0000000000000000        0x4 CMakeFiles/cube_robot.dir/home/wang/pico2/pico-sdk/src/common/pico_time/time.c.obj
 .text.alarm_pool_add_repeating_timer_us
                0x0000000000000000      0x208 CMakeFiles/cube_robot.dir/home/wang/pico2/pico-sdk/src/common/pico_time/time.c.obj
 .text.cancel_repeating_timer
                0x0000000000000000       0x8c CMakeFiles/cube_robot.dir/home/wang/pico2/pico-sdk/src/common/pico_time/time.c.obj
 .text.alarm_pool_dump
                0x0000000000000000       0x34 CMakeFiles/cube_robot.dir/home/wang/pico2/pico-sdk/src/common/pico_time/time.c.obj
 .rodata.at_the_end_of_time
                0x0000000000000000        0x8 CMakeFiles/cube_robot.dir/home/wang/pico2/pico-sdk/src/common/pico_time/time.c.obj
 .rodata.nil_time
                0x0000000000000000        0x8 CMakeFiles/cube_robot.dir/home/wang/pico2/pico-sdk/src/common/pico_time/time.c.obj
 .text          0x0000000000000000        0x0 CMakeFiles/cube_robot.dir/home/wang/pico2/pico-sdk/src/common/pico_time/timeout_helper.c.obj
 .data          0x0000000000000000        0x0 CMakeFiles/cube_robot.dir/home/wang/pico2/pico-sdk/src/common/pico_time/timeout_helper.c.obj
 .bss           0x0000000000000000        0x0 CMakeFiles/cube_robot.dir/home/wang/pico2/pico-sdk/src/common/pico_time/timeout_helper.c.obj
 .text.check_single_timeout_us
                0x0000000000000000       0x28 CMakeFiles/cube_robot.dir/home/wang/pico2/pico-sdk/src/common/pico_time/timeout_helper.c.obj
 .text.check_per_iteration_timeout_us
                0x0000000000000000       0x48 CMakeFiles/cube_robot.dir/home/wang/pico2/pico-sdk/src/common/pico_time/timeout_helper.c.obj
 .text.init_single_timeout_until
                0x0000000000000000        0xc CMakeFiles/cube_robot.dir/home/wang/pico2/pico-sdk/src/common/pico_time/timeout_helper.c.obj
 .text.init_per_iteration_timeout_us
                0x0000000000000000       0x30 CMakeFiles/cube_robot.dir/home/wang/pico2/pico-sdk/src/common/pico_time/timeout_helper.c.obj
 .comment       0x0000000000000000       0x4a CMakeFiles/cube_robot.dir/home/wang/pico2/pico-sdk/src/common/pico_time/timeout_helper.c.obj
 .ARM.attributes
                0x0000000000000000       0x2c CMakeFiles/cube_robot.dir/home/wang/pico2/pico-sdk/src/common/pico_time/timeout_helper.c.obj
 .text          0x0000000000000000        0x0 CMakeFiles/cube_robot.dir/home/wang/pico2/pico-sdk/src/rp2_common/hardware_timer/timer.c.obj
 .data          0x0000000000000000        0x0 CMakeFiles/cube_robot.dir/home/wang/pico2/pico-sdk/src/rp2_common/hardware_timer/timer.c.obj
 .bss           0x0000000000000000        0x0 CMakeFiles/cube_robot.dir/home/wang/pico2/pico-sdk/src/rp2_common/hardware_timer/timer.c.obj
 .text.hardware_alarm_unclaim
                0x0000000000000000       0x10 CMakeFiles/cube_robot.dir/home/wang/pico2/pico-sdk/src/rp2_common/hardware_timer/timer.c.obj
 .text.hardware_alarm_is_claimed
                0x0000000000000000       0x10 CMakeFiles/cube_robot.dir/home/wang/pico2/pico-sdk/src/rp2_common/hardware_timer/timer.c.obj
 .rodata.hardware_alarm_claim_unused.str1.4
                0x0000000000000000       0x14 CMakeFiles/cube_robot.dir/home/wang/pico2/pico-sdk/src/rp2_common/hardware_timer/timer.c.obj
 .text.hardware_alarm_claim_unused
                0x0000000000000000       0x20 CMakeFiles/cube_robot.dir/home/wang/pico2/pico-sdk/src/rp2_common/hardware_timer/timer.c.obj
 .text.busy_wait_us_32
                0x0000000000000000       0x68 CMakeFiles/cube_robot.dir/home/wang/pico2/pico-sdk/src/rp2_common/hardware_timer/timer.c.obj
 .text.busy_wait_us
                0x0000000000000000       0x54 CMakeFiles/cube_robot.dir/home/wang/pico2/pico-sdk/src/rp2_common/hardware_timer/timer.c.obj
 .text.busy_wait_ms
                0x0000000000000000       0x88 CMakeFiles/cube_robot.dir/home/wang/pico2/pico-sdk/src/rp2_common/hardware_timer/timer.c.obj
 .text.hardware_alarm_force_irq
                0x0000000000000000       0x3c CMakeFiles/cube_robot.dir/home/wang/pico2/pico-sdk/src/rp2_common/hardware_timer/timer.c.obj
 .text          0x0000000000000000        0x0 CMakeFiles/cube_robot.dir/home/wang/pico2/pico-sdk/src/common/pico_util/datetime.c.obj
 .data          0x0000000000000000        0x0 CMakeFiles/cube_robot.dir/home/wang/pico2/pico-sdk/src/common/pico_util/datetime.c.obj
 .bss           0x0000000000000000        0x0 CMakeFiles/cube_robot.dir/home/wang/pico2/pico-sdk/src/common/pico_util/datetime.c.obj
 .rodata.datetime_to_str.str1.4
                0x0000000000000000       0x19 CMakeFiles/cube_robot.dir/home/wang/pico2/pico-sdk/src/common/pico_util/datetime.c.obj
 .text.datetime_to_str
                0x0000000000000000       0x50 CMakeFiles/cube_robot.dir/home/wang/pico2/pico-sdk/src/common/pico_util/datetime.c.obj
 .rodata.str1.4
                0x0000000000000000       0xad CMakeFiles/cube_robot.dir/home/wang/pico2/pico-sdk/src/common/pico_util/datetime.c.obj
 .rodata.DATETIME_DOWS
                0x0000000000000000       0x1c CMakeFiles/cube_robot.dir/home/wang/pico2/pico-sdk/src/common/pico_util/datetime.c.obj
 .rodata.DATETIME_MONTHS
                0x0000000000000000       0x30 CMakeFiles/cube_robot.dir/home/wang/pico2/pico-sdk/src/common/pico_util/datetime.c.obj
 .comment       0x0000000000000000       0x4a CMakeFiles/cube_robot.dir/home/wang/pico2/pico-sdk/src/common/pico_util/datetime.c.obj
 .ARM.attributes
                0x0000000000000000       0x2c CMakeFiles/cube_robot.dir/home/wang/pico2/pico-sdk/src/common/pico_util/datetime.c.obj
 .text          0x0000000000000000        0x0 CMakeFiles/cube_robot.dir/home/wang/pico2/pico-sdk/src/common/pico_util/pheap.c.obj
 .data          0x0000000000000000        0x0 CMakeFiles/cube_robot.dir/home/wang/pico2/pico-sdk/src/common/pico_util/pheap.c.obj
 .bss           0x0000000000000000        0x0 CMakeFiles/cube_robot.dir/home/wang/pico2/pico-sdk/src/common/pico_util/pheap.c.obj
 .rodata.ph_dump_node.str1.4
                0x0000000000000000       0x15 CMakeFiles/cube_robot.dir/home/wang/pico2/pico-sdk/src/common/pico_util/pheap.c.obj
 .text.ph_dump_node
                0x0000000000000000       0xb0 CMakeFiles/cube_robot.dir/home/wang/pico2/pico-sdk/src/common/pico_util/pheap.c.obj
 .text.ph_create
                0x0000000000000000       0x60 CMakeFiles/cube_robot.dir/home/wang/pico2/pico-sdk/src/common/pico_util/pheap.c.obj
 .text.ph_clear
                0x0000000000000000       0x30 CMakeFiles/cube_robot.dir/home/wang/pico2/pico-sdk/src/common/pico_util/pheap.c.obj
 .text.ph_destroy
                0x0000000000000000       0x14 CMakeFiles/cube_robot.dir/home/wang/pico2/pico-sdk/src/common/pico_util/pheap.c.obj
 .rodata.ph_dump.str1.4
                0x0000000000000000        0xf CMakeFiles/cube_robot.dir/home/wang/pico2/pico-sdk/src/common/pico_util/pheap.c.obj
 .text.ph_dump  0x0000000000000000      0x38c CMakeFiles/cube_robot.dir/home/wang/pico2/pico-sdk/src/common/pico_util/pheap.c.obj
 .text          0x0000000000000000        0x0 CMakeFiles/cube_robot.dir/home/wang/pico2/pico-sdk/src/common/pico_util/queue.c.obj
 .data          0x0000000000000000        0x0 CMakeFiles/cube_robot.dir/home/wang/pico2/pico-sdk/src/common/pico_util/queue.c.obj
 .bss           0x0000000000000000        0x0 CMakeFiles/cube_robot.dir/home/wang/pico2/pico-sdk/src/common/pico_util/queue.c.obj
 .text.queue_init_with_spinlock
                0x0000000000000000       0x24 CMakeFiles/cube_robot.dir/home/wang/pico2/pico-sdk/src/common/pico_util/queue.c.obj
 .text.queue_free
                0x0000000000000000        0xc CMakeFiles/cube_robot.dir/home/wang/pico2/pico-sdk/src/common/pico_util/queue.c.obj
 .text.queue_try_add
                0x0000000000000000       0x70 CMakeFiles/cube_robot.dir/home/wang/pico2/pico-sdk/src/common/pico_util/queue.c.obj
 .text.queue_try_remove
                0x0000000000000000       0x70 CMakeFiles/cube_robot.dir/home/wang/pico2/pico-sdk/src/common/pico_util/queue.c.obj
 .text.queue_try_peek
                0x0000000000000000       0x5c CMakeFiles/cube_robot.dir/home/wang/pico2/pico-sdk/src/common/pico_util/queue.c.obj
 .text.queue_add_blocking
                0x0000000000000000       0x74 CMakeFiles/cube_robot.dir/home/wang/pico2/pico-sdk/src/common/pico_util/queue.c.obj
 .text.queue_remove_blocking
                0x0000000000000000       0x74 CMakeFiles/cube_robot.dir/home/wang/pico2/pico-sdk/src/common/pico_util/queue.c.obj
 .text.queue_peek_blocking
                0x0000000000000000       0x60 CMakeFiles/cube_robot.dir/home/wang/pico2/pico-sdk/src/common/pico_util/queue.c.obj
 .comment       0x0000000000000000       0x4a CMakeFiles/cube_robot.dir/home/wang/pico2/pico-sdk/src/common/pico_util/queue.c.obj
 .ARM.attributes
                0x0000000000000000       0x2c CMakeFiles/cube_robot.dir/home/wang/pico2/pico-sdk/src/common/pico_util/queue.c.obj
 .text          0x0000000000000000        0x0 CMakeFiles/cube_robot.dir/home/wang/pico2/pico-sdk/src/rp2_common/hardware_uart/uart.c.obj
 .data          0x0000000000000000        0x0 CMakeFiles/cube_robot.dir/home/wang/pico2/pico-sdk/src/rp2_common/hardware_uart/uart.c.obj
 .bss           0x0000000000000000        0x0 CMakeFiles/cube_robot.dir/home/wang/pico2/pico-sdk/src/rp2_common/hardware_uart/uart.c.obj
 .text.uart_init
                0x0000000000000000      0x188 CMakeFiles/cube_robot.dir/home/wang/pico2/pico-sdk/src/rp2_common/hardware_uart/uart.c.obj
 .text.uart_deinit
                0x0000000000000000       0x24 CMakeFiles/cube_robot.dir/home/wang/pico2/pico-sdk/src/rp2_common/hardware_uart/uart.c.obj
 .text.uart_set_baudrate
                0x0000000000000000       0xb8 CMakeFiles/cube_robot.dir/home/wang/pico2/pico-sdk/src/rp2_common/hardware_uart/uart.c.obj
 .text.uart_set_format
                0x0000000000000000       0x7c CMakeFiles/cube_robot.dir/home/wang/pico2/pico-sdk/src/rp2_common/hardware_uart/uart.c.obj
 .text.uart_set_fifo_enabled
                0x0000000000000000       0x64 CMakeFiles/cube_robot.dir/home/wang/pico2/pico-sdk/src/rp2_common/hardware_uart/uart.c.obj
 .text.uart_set_break
                0x0000000000000000       0x60 CMakeFiles/cube_robot.dir/home/wang/pico2/pico-sdk/src/rp2_common/hardware_uart/uart.c.obj
 .text.uart_set_translate_crlf
                0x0000000000000000       0x28 CMakeFiles/cube_robot.dir/home/wang/pico2/pico-sdk/src/rp2_common/hardware_uart/uart.c.obj
 .text.uart_is_readable_within_us
                0x0000000000000000       0x24 CMakeFiles/cube_robot.dir/home/wang/pico2/pico-sdk/src/rp2_common/hardware_uart/uart.c.obj
 .bss.uart_char_to_line_feed
                0x0000000000000000        0x4 CMakeFiles/cube_robot.dir/home/wang/pico2/pico-sdk/src/rp2_common/hardware_uart/uart.c.obj
 .comment       0x0000000000000000       0x4a CMakeFiles/cube_robot.dir/home/wang/pico2/pico-sdk/src/rp2_common/hardware_uart/uart.c.obj
 .ARM.attributes
                0x0000000000000000       0x2c CMakeFiles/cube_robot.dir/home/wang/pico2/pico-sdk/src/rp2_common/hardware_uart/uart.c.obj
 .text          0x0000000000000000        0x0 CMakeFiles/cube_robot.dir/home/wang/pico2/pico-sdk/src/rp2_common/hardware_clocks/clocks.c.obj
 .data          0x0000000000000000        0x0 CMakeFiles/cube_robot.dir/home/wang/pico2/pico-sdk/src/rp2_common/hardware_clocks/clocks.c.obj
 .bss           0x0000000000000000        0x0 CMakeFiles/cube_robot.dir/home/wang/pico2/pico-sdk/src/rp2_common/hardware_clocks/clocks.c.obj
 .text.clocks_irq_handler
                0x0000000000000000       0xc4 CMakeFiles/cube_robot.dir/home/wang/pico2/pico-sdk/src/rp2_common/hardware_clocks/clocks.c.obj
 .text.clock_stop
                0x0000000000000000       0x2c CMakeFiles/cube_robot.dir/home/wang/pico2/pico-sdk/src/rp2_common/hardware_clocks/clocks.c.obj
 .text.clock_configure
                0x0000000000000000      0x118 CMakeFiles/cube_robot.dir/home/wang/pico2/pico-sdk/src/rp2_common/hardware_clocks/clocks.c.obj
 .text.clock_get_hz
                0x0000000000000000        0xc CMakeFiles/cube_robot.dir/home/wang/pico2/pico-sdk/src/rp2_common/hardware_clocks/clocks.c.obj
 .text.clock_set_reported_hz
                0x0000000000000000        0xc CMakeFiles/cube_robot.dir/home/wang/pico2/pico-sdk/src/rp2_common/hardware_clocks/clocks.c.obj
 .text.frequency_count_khz
                0x0000000000000000       0x48 CMakeFiles/cube_robot.dir/home/wang/pico2/pico-sdk/src/rp2_common/hardware_clocks/clocks.c.obj
 .text.clocks_enable_resus
                0x0000000000000000       0x34 CMakeFiles/cube_robot.dir/home/wang/pico2/pico-sdk/src/rp2_common/hardware_clocks/clocks.c.obj
 .text.clock_gpio_init_int_frac
                0x0000000000000000       0x54 CMakeFiles/cube_robot.dir/home/wang/pico2/pico-sdk/src/rp2_common/hardware_clocks/clocks.c.obj
 .text.clock_configure_gpin
                0x0000000000000000      0x110 CMakeFiles/cube_robot.dir/home/wang/pico2/pico-sdk/src/rp2_common/hardware_clocks/clocks.c.obj
 .bss._resus_callback
                0x0000000000000000        0x4 CMakeFiles/cube_robot.dir/home/wang/pico2/pico-sdk/src/rp2_common/hardware_clocks/clocks.c.obj
 .rodata.gpin0_src
                0x0000000000000000        0xa CMakeFiles/cube_robot.dir/home/wang/pico2/pico-sdk/src/rp2_common/hardware_clocks/clocks.c.obj
 .text          0x0000000000000000        0x0 CMakeFiles/cube_robot.dir/home/wang/pico2/pico-sdk/src/rp2_common/hardware_pll/pll.c.obj
 .data          0x0000000000000000        0x0 CMakeFiles/cube_robot.dir/home/wang/pico2/pico-sdk/src/rp2_common/hardware_pll/pll.c.obj
 .bss           0x0000000000000000        0x0 CMakeFiles/cube_robot.dir/home/wang/pico2/pico-sdk/src/rp2_common/hardware_pll/pll.c.obj
 .text.pll_deinit
                0x0000000000000000        0x8 CMakeFiles/cube_robot.dir/home/wang/pico2/pico-sdk/src/rp2_common/hardware_pll/pll.c.obj
 .text          0x0000000000000000        0x0 CMakeFiles/cube_robot.dir/home/wang/pico2/pico-sdk/src/rp2_common/hardware_vreg/vreg.c.obj
 .data          0x0000000000000000        0x0 CMakeFiles/cube_robot.dir/home/wang/pico2/pico-sdk/src/rp2_common/hardware_vreg/vreg.c.obj
 .bss           0x0000000000000000        0x0 CMakeFiles/cube_robot.dir/home/wang/pico2/pico-sdk/src/rp2_common/hardware_vreg/vreg.c.obj
 .text.vreg_set_voltage
                0x0000000000000000       0x1c CMakeFiles/cube_robot.dir/home/wang/pico2/pico-sdk/src/rp2_common/hardware_vreg/vreg.c.obj
 .comment       0x0000000000000000       0x4a CMakeFiles/cube_robot.dir/home/wang/pico2/pico-sdk/src/rp2_common/hardware_vreg/vreg.c.obj
 .ARM.attributes
                0x0000000000000000       0x2c CMakeFiles/cube_robot.dir/home/wang/pico2/pico-sdk/src/rp2_common/hardware_vreg/vreg.c.obj
 .text          0x0000000000000000        0x0 CMakeFiles/cube_robot.dir/home/wang/pico2/pico-sdk/src/rp2_common/hardware_watchdog/watchdog.c.obj
 .data          0x0000000000000000        0x0 CMakeFiles/cube_robot.dir/home/wang/pico2/pico-sdk/src/rp2_common/hardware_watchdog/watchdog.c.obj
 .bss           0x0000000000000000        0x0 CMakeFiles/cube_robot.dir/home/wang/pico2/pico-sdk/src/rp2_common/hardware_watchdog/watchdog.c.obj
 .text.watchdog_update
                0x0000000000000000       0x14 CMakeFiles/cube_robot.dir/home/wang/pico2/pico-sdk/src/rp2_common/hardware_watchdog/watchdog.c.obj
 .text.watchdog_get_count
                0x0000000000000000       0x10 CMakeFiles/cube_robot.dir/home/wang/pico2/pico-sdk/src/rp2_common/hardware_watchdog/watchdog.c.obj
 .text._watchdog_enable
                0x0000000000000000       0x78 CMakeFiles/cube_robot.dir/home/wang/pico2/pico-sdk/src/rp2_common/hardware_watchdog/watchdog.c.obj
 .text.watchdog_enable
                0x0000000000000000       0x84 CMakeFiles/cube_robot.dir/home/wang/pico2/pico-sdk/src/rp2_common/hardware_watchdog/watchdog.c.obj
 .text.watchdog_caused_reboot
                0x0000000000000000       0x10 CMakeFiles/cube_robot.dir/home/wang/pico2/pico-sdk/src/rp2_common/hardware_watchdog/watchdog.c.obj
 .text.watchdog_enable_caused_reboot
                0x0000000000000000       0x24 CMakeFiles/cube_robot.dir/home/wang/pico2/pico-sdk/src/rp2_common/hardware_watchdog/watchdog.c.obj
 .text          0x0000000000000000        0x0 CMakeFiles/cube_robot.dir/home/wang/pico2/pico-sdk/src/rp2_common/hardware_xosc/xosc.c.obj
 .data          0x0000000000000000        0x0 CMakeFiles/cube_robot.dir/home/wang/pico2/pico-sdk/src/rp2_common/hardware_xosc/xosc.c.obj
 .bss           0x0000000000000000        0x0 CMakeFiles/cube_robot.dir/home/wang/pico2/pico-sdk/src/rp2_common/hardware_xosc/xosc.c.obj
 .text.xosc_disable
                0x0000000000000000       0x24 CMakeFiles/cube_robot.dir/home/wang/pico2/pico-sdk/src/rp2_common/hardware_xosc/xosc.c.obj
 .text.xosc_dormant
                0x0000000000000000       0x18 CMakeFiles/cube_robot.dir/home/wang/pico2/pico-sdk/src/rp2_common/hardware_xosc/xosc.c.obj
 .text          0x0000000000000000        0x0 CMakeFiles/cube_robot.dir/home/wang/pico2/pico-sdk/src/rp2_common/hardware_divider/divider.S.obj
 .data          0x0000000000000000        0x0 CMakeFiles/cube_robot.dir/home/wang/pico2/pico-sdk/src/rp2_common/hardware_divider/divider.S.obj
 .bss           0x0000000000000000        0x0 CMakeFiles/cube_robot.dir/home/wang/pico2/pico-sdk/src/rp2_common/hardware_divider/divider.S.obj
 .text.hw_divider_divmod_s32
                0x0000000000000000        0xc CMakeFiles/cube_robot.dir/home/wang/pico2/pico-sdk/src/rp2_common/hardware_divider/divider.S.obj
 .text.hw_divider_divmod_u32
                0x0000000000000000        0xc CMakeFiles/cube_robot.dir/home/wang/pico2/pico-sdk/src/rp2_common/hardware_divider/divider.S.obj
 .text.hw_divider_divmod_return
                0x0000000000000000        0xc CMakeFiles/cube_robot.dir/home/wang/pico2/pico-sdk/src/rp2_common/hardware_divider/divider.S.obj
 .text.hw_divider_save_state
                0x0000000000000000       0x14 CMakeFiles/cube_robot.dir/home/wang/pico2/pico-sdk/src/rp2_common/hardware_divider/divider.S.obj
 .text.hw_divider_restore_state
                0x0000000000000000       0x14 CMakeFiles/cube_robot.dir/home/wang/pico2/pico-sdk/src/rp2_common/hardware_divider/divider.S.obj
 .ARM.attributes
                0x0000000000000000       0x22 CMakeFiles/cube_robot.dir/home/wang/pico2/pico-sdk/src/rp2_common/hardware_divider/divider.S.obj
 .text          0x0000000000000000        0x0 CMakeFiles/cube_robot.dir/home/wang/pico2/pico-sdk/src/rp2_common/pico_runtime/runtime.c.obj
 .data          0x0000000000000000        0x0 CMakeFiles/cube_robot.dir/home/wang/pico2/pico-sdk/src/rp2_common/pico_runtime/runtime.c.obj
 .bss           0x0000000000000000        0x0 CMakeFiles/cube_robot.dir/home/wang/pico2/pico-sdk/src/rp2_common/pico_runtime/runtime.c.obj
 .text.runtime_install_stack_guard
                0x0000000000000000       0x38 CMakeFiles/cube_robot.dir/home/wang/pico2/pico-sdk/src/rp2_common/pico_runtime/runtime.c.obj
 .text._gettimeofday
                0x0000000000000000       0x40 CMakeFiles/cube_robot.dir/home/wang/pico2/pico-sdk/src/rp2_common/pico_runtime/runtime.c.obj
 .text.settimeofday
                0x0000000000000000       0x54 CMakeFiles/cube_robot.dir/home/wang/pico2/pico-sdk/src/rp2_common/pico_runtime/runtime.c.obj
 .text._times   0x0000000000000000       0x24 CMakeFiles/cube_robot.dir/home/wang/pico2/pico-sdk/src/rp2_common/pico_runtime/runtime.c.obj
 .text._getpid  0x0000000000000000        0x4 CMakeFiles/cube_robot.dir/home/wang/pico2/pico-sdk/src/rp2_common/pico_runtime/runtime.c.obj
 .text._kill    0x0000000000000000        0x8 CMakeFiles/cube_robot.dir/home/wang/pico2/pico-sdk/src/rp2_common/pico_runtime/runtime.c.obj
 .rodata.panic_unsupported.str1.4
                0x0000000000000000        0xe CMakeFiles/cube_robot.dir/home/wang/pico2/pico-sdk/src/rp2_common/pico_runtime/runtime.c.obj
 .text.panic_unsupported
                0x0000000000000000        0xc CMakeFiles/cube_robot.dir/home/wang/pico2/pico-sdk/src/rp2_common/pico_runtime/runtime.c.obj
 .bss.epoch_time_us_since_boot
                0x0000000000000000        0x8 CMakeFiles/cube_robot.dir/home/wang/pico2/pico-sdk/src/rp2_common/pico_runtime/runtime.c.obj
 .text          0x0000000000000000        0x0 CMakeFiles/cube_robot.dir/home/wang/pico2/pico-sdk/src/rp2_common/pico_printf/printf.c.obj
 .data          0x0000000000000000        0x0 CMakeFiles/cube_robot.dir/home/wang/pico2/pico-sdk/src/rp2_common/pico_printf/printf.c.obj
 .bss           0x0000000000000000        0x0 CMakeFiles/cube_robot.dir/home/wang/pico2/pico-sdk/src/rp2_common/pico_printf/printf.c.obj
 .text._out_buffer
                0x0000000000000000        0x8 CMakeFiles/cube_robot.dir/home/wang/pico2/pico-sdk/src/rp2_common/pico_printf/printf.c.obj
 .text.__wrap_sprintf
                0x0000000000000000       0x28 CMakeFiles/cube_robot.dir/home/wang/pico2/pico-sdk/src/rp2_common/pico_printf/printf.c.obj
 .text.__wrap_snprintf
                0x0000000000000000       0x28 CMakeFiles/cube_robot.dir/home/wang/pico2/pico-sdk/src/rp2_common/pico_printf/printf.c.obj
 .text.__wrap_vsnprintf
                0x0000000000000000       0x1c CMakeFiles/cube_robot.dir/home/wang/pico2/pico-sdk/src/rp2_common/pico_printf/printf.c.obj
 .data          0x0000000000000000        0x0 CMakeFiles/cube_robot.dir/home/wang/pico2/pico-sdk/src/rp2_common/pico_bit_ops/bit_ops_aeabi.S.obj
 .bss           0x0000000000000000        0x0 CMakeFiles/cube_robot.dir/home/wang/pico2/pico-sdk/src/rp2_common/pico_bit_ops/bit_ops_aeabi.S.obj
 .text.clzsi    0x0000000000000000        0xc CMakeFiles/cube_robot.dir/home/wang/pico2/pico-sdk/src/rp2_common/pico_bit_ops/bit_ops_aeabi.S.obj
 .text.ctzsi    0x0000000000000000        0xc CMakeFiles/cube_robot.dir/home/wang/pico2/pico-sdk/src/rp2_common/pico_bit_ops/bit_ops_aeabi.S.obj
 .text.popcountsi
                0x0000000000000000        0xc CMakeFiles/cube_robot.dir/home/wang/pico2/pico-sdk/src/rp2_common/pico_bit_ops/bit_ops_aeabi.S.obj
 .text.clzdi    0x0000000000000000       0x18 CMakeFiles/cube_robot.dir/home/wang/pico2/pico-sdk/src/rp2_common/pico_bit_ops/bit_ops_aeabi.S.obj
 .text.ctzdi    0x0000000000000000       0x18 CMakeFiles/cube_robot.dir/home/wang/pico2/pico-sdk/src/rp2_common/pico_bit_ops/bit_ops_aeabi.S.obj
 .text.popcountdi
                0x0000000000000000       0x18 CMakeFiles/cube_robot.dir/home/wang/pico2/pico-sdk/src/rp2_common/pico_bit_ops/bit_ops_aeabi.S.obj
 .text.reverse32
                0x0000000000000000        0xc CMakeFiles/cube_robot.dir/home/wang/pico2/pico-sdk/src/rp2_common/pico_bit_ops/bit_ops_aeabi.S.obj
 .text.__rev    0x0000000000000000        0xc CMakeFiles/cube_robot.dir/home/wang/pico2/pico-sdk/src/rp2_common/pico_bit_ops/bit_ops_aeabi.S.obj
 .text.__revll  0x0000000000000000       0x18 CMakeFiles/cube_robot.dir/home/wang/pico2/pico-sdk/src/rp2_common/pico_bit_ops/bit_ops_aeabi.S.obj
 .text          0x0000000000000000        0x0 CMakeFiles/cube_robot.dir/home/wang/pico2/pico-sdk/src/rp2_common/pico_bootrom/bootrom.c.obj
 .data          0x0000000000000000        0x0 CMakeFiles/cube_robot.dir/home/wang/pico2/pico-sdk/src/rp2_common/pico_bootrom/bootrom.c.obj
 .bss           0x0000000000000000        0x0 CMakeFiles/cube_robot.dir/home/wang/pico2/pico-sdk/src/rp2_common/pico_bootrom/bootrom.c.obj
 .text          0x0000000000000000        0x0 CMakeFiles/cube_robot.dir/home/wang/pico2/pico-sdk/src/rp2_common/pico_divider/divider.S.obj
 .data          0x0000000000000000        0x0 CMakeFiles/cube_robot.dir/home/wang/pico2/pico-sdk/src/rp2_common/pico_divider/divider.S.obj
 .bss           0x0000000000000000        0x0 CMakeFiles/cube_robot.dir/home/wang/pico2/pico-sdk/src/rp2_common/pico_divider/divider.S.obj
 .text.divmod_s64s64_rem
                0x0000000000000000        0xc CMakeFiles/cube_robot.dir/home/wang/pico2/pico-sdk/src/rp2_common/pico_divider/divider.S.obj
 .text.divmod_u64u64_rem
                0x0000000000000000        0xc CMakeFiles/cube_robot.dir/home/wang/pico2/pico-sdk/src/rp2_common/pico_divider/divider.S.obj
 .text          0x0000000000000000        0x0 CMakeFiles/cube_robot.dir/home/wang/pico2/pico-sdk/src/rp2_common/pico_double/double_aeabi.S.obj
 .data          0x0000000000000000        0x0 CMakeFiles/cube_robot.dir/home/wang/pico2/pico-sdk/src/rp2_common/pico_double/double_aeabi.S.obj
 .bss           0x0000000000000000        0x0 CMakeFiles/cube_robot.dir/home/wang/pico2/pico-sdk/src/rp2_common/pico_double/double_aeabi.S.obj
 .text.push_r8_r11
                0x0000000000000000        0xc CMakeFiles/cube_robot.dir/home/wang/pico2/pico-sdk/src/rp2_common/pico_double/double_aeabi.S.obj
 .text.pop_r8_r11
                0x0000000000000000        0xc CMakeFiles/cube_robot.dir/home/wang/pico2/pico-sdk/src/rp2_common/pico_double/double_aeabi.S.obj
 .text.__wrap___aeabi_ui2d
                0x0000000000000000       0x18 CMakeFiles/cube_robot.dir/home/wang/pico2/pico-sdk/src/rp2_common/pico_double/double_aeabi.S.obj
 .text.double2int
                0x0000000000000000       0x18 CMakeFiles/cube_robot.dir/home/wang/pico2/pico-sdk/src/rp2_common/pico_double/double_aeabi.S.obj
 .text.fix2double
                0x0000000000000000       0x18 CMakeFiles/cube_robot.dir/home/wang/pico2/pico-sdk/src/rp2_common/pico_double/double_aeabi.S.obj
 .text.ufix2double
                0x0000000000000000       0x28 CMakeFiles/cube_robot.dir/home/wang/pico2/pico-sdk/src/rp2_common/pico_double/double_aeabi.S.obj
 .text.fix642double
                0x0000000000000000       0x18 CMakeFiles/cube_robot.dir/home/wang/pico2/pico-sdk/src/rp2_common/pico_double/double_aeabi.S.obj
 .text.__wrap___aeabi_l2d
                0x0000000000000000       0x18 CMakeFiles/cube_robot.dir/home/wang/pico2/pico-sdk/src/rp2_common/pico_double/double_aeabi.S.obj
 .text.__wrap___aeabi_ul2d
                0x0000000000000000       0x18 CMakeFiles/cube_robot.dir/home/wang/pico2/pico-sdk/src/rp2_common/pico_double/double_aeabi.S.obj
 .text.__wrap___aeabi_d2lz
                0x0000000000000000       0x26 CMakeFiles/cube_robot.dir/home/wang/pico2/pico-sdk/src/rp2_common/pico_double/double_aeabi.S.obj
 .text.double2int64
                0x0000000000000000       0x18 CMakeFiles/cube_robot.dir/home/wang/pico2/pico-sdk/src/rp2_common/pico_double/double_aeabi.S.obj
 .text.__wrap___aeabi_d2ulz
                0x0000000000000000       0x18 CMakeFiles/cube_robot.dir/home/wang/pico2/pico-sdk/src/rp2_common/pico_double/double_aeabi.S.obj
 .text.double2fix64
                0x0000000000000000       0x18 CMakeFiles/cube_robot.dir/home/wang/pico2/pico-sdk/src/rp2_common/pico_double/double_aeabi.S.obj
 .text.double2ufix64
                0x0000000000000000       0x18 CMakeFiles/cube_robot.dir/home/wang/pico2/pico-sdk/src/rp2_common/pico_double/double_aeabi.S.obj
 .text.double2fix
                0x0000000000000000       0x18 CMakeFiles/cube_robot.dir/home/wang/pico2/pico-sdk/src/rp2_common/pico_double/double_aeabi.S.obj
 .text.double2ufix
                0x0000000000000000       0x18 CMakeFiles/cube_robot.dir/home/wang/pico2/pico-sdk/src/rp2_common/pico_double/double_aeabi.S.obj
 .text.__wrap___aeabi_d2f
                0x0000000000000000       0x18 CMakeFiles/cube_robot.dir/home/wang/pico2/pico-sdk/src/rp2_common/pico_double/double_aeabi.S.obj
 .text.__wrap_srqt
                0x0000000000000000       0x18 CMakeFiles/cube_robot.dir/home/wang/pico2/pico-sdk/src/rp2_common/pico_double/double_aeabi.S.obj
 .text.__wrap_sincostan_remainder
                0x0000000000000000       0x14 CMakeFiles/cube_robot.dir/home/wang/pico2/pico-sdk/src/rp2_common/pico_double/double_aeabi.S.obj
 .text.__wrap_cos
                0x0000000000000000       0x2c CMakeFiles/cube_robot.dir/home/wang/pico2/pico-sdk/src/rp2_common/pico_double/double_aeabi.S.obj
 .text.__wrap_sin
                0x0000000000000000       0x2c CMakeFiles/cube_robot.dir/home/wang/pico2/pico-sdk/src/rp2_common/pico_double/double_aeabi.S.obj
 .text.__wrap_sincos
                0x0000000000000000       0xa0 CMakeFiles/cube_robot.dir/home/wang/pico2/pico-sdk/src/rp2_common/pico_double/double_aeabi.S.obj
 .text.__wrap_tan
                0x0000000000000000       0x5c CMakeFiles/cube_robot.dir/home/wang/pico2/pico-sdk/src/rp2_common/pico_double/double_aeabi.S.obj
 .text.__wrap_atan2
                0x0000000000000000       0x18 CMakeFiles/cube_robot.dir/home/wang/pico2/pico-sdk/src/rp2_common/pico_double/double_aeabi.S.obj
 .text.__wrap_exp
                0x0000000000000000       0x18 CMakeFiles/cube_robot.dir/home/wang/pico2/pico-sdk/src/rp2_common/pico_double/double_aeabi.S.obj
 .text.__wrap_log
                0x0000000000000000       0x18 CMakeFiles/cube_robot.dir/home/wang/pico2/pico-sdk/src/rp2_common/pico_double/double_aeabi.S.obj
 .text          0x0000000000000000        0x0 CMakeFiles/cube_robot.dir/home/wang/pico2/pico-sdk/src/rp2_common/pico_double/double_init_rom.c.obj
 .data          0x0000000000000000        0x0 CMakeFiles/cube_robot.dir/home/wang/pico2/pico-sdk/src/rp2_common/pico_double/double_init_rom.c.obj
 .bss           0x0000000000000000        0x0 CMakeFiles/cube_robot.dir/home/wang/pico2/pico-sdk/src/rp2_common/pico_double/double_init_rom.c.obj
 .text          0x0000000000000000        0x0 CMakeFiles/cube_robot.dir/home/wang/pico2/pico-sdk/src/rp2_common/pico_double/double_math.c.obj
 .data          0x0000000000000000        0x0 CMakeFiles/cube_robot.dir/home/wang/pico2/pico-sdk/src/rp2_common/pico_double/double_math.c.obj
 .bss           0x0000000000000000        0x0 CMakeFiles/cube_robot.dir/home/wang/pico2/pico-sdk/src/rp2_common/pico_double/double_math.c.obj
 .text.dpow_1   0x0000000000000000      0x274 CMakeFiles/cube_robot.dir/home/wang/pico2/pico-sdk/src/rp2_common/pico_double/double_math.c.obj
 .text.dpow_int2
                0x0000000000000000       0xf8 CMakeFiles/cube_robot.dir/home/wang/pico2/pico-sdk/src/rp2_common/pico_double/double_math.c.obj
 .text.dpowint_0
                0x0000000000000000      0x1dc CMakeFiles/cube_robot.dir/home/wang/pico2/pico-sdk/src/rp2_common/pico_double/double_math.c.obj
 .text.dpow_0   0x0000000000000000      0x1cc CMakeFiles/cube_robot.dir/home/wang/pico2/pico-sdk/src/rp2_common/pico_double/double_math.c.obj
 .text.__wrap_ldexp
                0x0000000000000000       0x4c CMakeFiles/cube_robot.dir/home/wang/pico2/pico-sdk/src/rp2_common/pico_double/double_math.c.obj
 .text.__wrap_copysign
                0x0000000000000000       0x10 CMakeFiles/cube_robot.dir/home/wang/pico2/pico-sdk/src/rp2_common/pico_double/double_math.c.obj
 .text.__wrap_trunc
                0x0000000000000000       0x60 CMakeFiles/cube_robot.dir/home/wang/pico2/pico-sdk/src/rp2_common/pico_double/double_math.c.obj
 .text.__wrap_round
                0x0000000000000000       0xa0 CMakeFiles/cube_robot.dir/home/wang/pico2/pico-sdk/src/rp2_common/pico_double/double_math.c.obj
 .text.__wrap_floor
                0x0000000000000000       0x94 CMakeFiles/cube_robot.dir/home/wang/pico2/pico-sdk/src/rp2_common/pico_double/double_math.c.obj
 .text.__wrap_ceil
                0x0000000000000000       0x98 CMakeFiles/cube_robot.dir/home/wang/pico2/pico-sdk/src/rp2_common/pico_double/double_math.c.obj
 .text.__wrap_asin
                0x0000000000000000       0x60 CMakeFiles/cube_robot.dir/home/wang/pico2/pico-sdk/src/rp2_common/pico_double/double_math.c.obj
 .text.__wrap_acos
                0x0000000000000000       0x5c CMakeFiles/cube_robot.dir/home/wang/pico2/pico-sdk/src/rp2_common/pico_double/double_math.c.obj
 .text.__wrap_atan
                0x0000000000000000       0x40 CMakeFiles/cube_robot.dir/home/wang/pico2/pico-sdk/src/rp2_common/pico_double/double_math.c.obj
 .text.__wrap_sinh
                0x0000000000000000       0x5c CMakeFiles/cube_robot.dir/home/wang/pico2/pico-sdk/src/rp2_common/pico_double/double_math.c.obj
 .text.__wrap_cosh
                0x0000000000000000       0x5c CMakeFiles/cube_robot.dir/home/wang/pico2/pico-sdk/src/rp2_common/pico_double/double_math.c.obj
 .text.__wrap_tanh
                0x0000000000000000       0x68 CMakeFiles/cube_robot.dir/home/wang/pico2/pico-sdk/src/rp2_common/pico_double/double_math.c.obj
 .text.__wrap_asinh
                0x0000000000000000       0xb0 CMakeFiles/cube_robot.dir/home/wang/pico2/pico-sdk/src/rp2_common/pico_double/double_math.c.obj
 .text.__wrap_acosh
                0x0000000000000000       0x7c CMakeFiles/cube_robot.dir/home/wang/pico2/pico-sdk/src/rp2_common/pico_double/double_math.c.obj
 .text.__wrap_atanh
                0x0000000000000000       0x60 CMakeFiles/cube_robot.dir/home/wang/pico2/pico-sdk/src/rp2_common/pico_double/double_math.c.obj
 .text.__wrap_exp2
                0x0000000000000000       0xbc CMakeFiles/cube_robot.dir/home/wang/pico2/pico-sdk/src/rp2_common/pico_double/double_math.c.obj
 .text.__wrap_log2
                0x0000000000000000       0x18 CMakeFiles/cube_robot.dir/home/wang/pico2/pico-sdk/src/rp2_common/pico_double/double_math.c.obj
 .text.__wrap_exp10
                0x0000000000000000       0x14 CMakeFiles/cube_robot.dir/home/wang/pico2/pico-sdk/src/rp2_common/pico_double/double_math.c.obj
 .text.__wrap_log10
                0x0000000000000000       0x18 CMakeFiles/cube_robot.dir/home/wang/pico2/pico-sdk/src/rp2_common/pico_double/double_math.c.obj
 .text.__wrap_expm1
                0x0000000000000000       0x14 CMakeFiles/cube_robot.dir/home/wang/pico2/pico-sdk/src/rp2_common/pico_double/double_math.c.obj
 .text.__wrap_log1p
                0x0000000000000000       0x14 CMakeFiles/cube_robot.dir/home/wang/pico2/pico-sdk/src/rp2_common/pico_double/double_math.c.obj
 .text.__wrap_fma
                0x0000000000000000       0x10 CMakeFiles/cube_robot.dir/home/wang/pico2/pico-sdk/src/rp2_common/pico_double/double_math.c.obj
 .text.__wrap_powint
                0x0000000000000000       0xb0 CMakeFiles/cube_robot.dir/home/wang/pico2/pico-sdk/src/rp2_common/pico_double/double_math.c.obj
 .text.__wrap_pow
                0x0000000000000000      0x314 CMakeFiles/cube_robot.dir/home/wang/pico2/pico-sdk/src/rp2_common/pico_double/double_math.c.obj
 .text.__wrap_hypot
                0x0000000000000000      0x1ac CMakeFiles/cube_robot.dir/home/wang/pico2/pico-sdk/src/rp2_common/pico_double/double_math.c.obj
 .text.__wrap_cbrt
                0x0000000000000000       0xcc CMakeFiles/cube_robot.dir/home/wang/pico2/pico-sdk/src/rp2_common/pico_double/double_math.c.obj
 .text.__wrap_fmod
                0x0000000000000000      0x170 CMakeFiles/cube_robot.dir/home/wang/pico2/pico-sdk/src/rp2_common/pico_double/double_math.c.obj
 .text.__wrap_remquo
                0x0000000000000000      0x2a0 CMakeFiles/cube_robot.dir/home/wang/pico2/pico-sdk/src/rp2_common/pico_double/double_math.c.obj
 .text.__wrap_drem
                0x0000000000000000       0x10 CMakeFiles/cube_robot.dir/home/wang/pico2/pico-sdk/src/rp2_common/pico_double/double_math.c.obj
 .text.__wrap_remainder
                0x0000000000000000       0x10 CMakeFiles/cube_robot.dir/home/wang/pico2/pico-sdk/src/rp2_common/pico_double/double_math.c.obj
 .comment       0x0000000000000000       0x4a CMakeFiles/cube_robot.dir/home/wang/pico2/pico-sdk/src/rp2_common/pico_double/double_math.c.obj
 .ARM.attributes
                0x0000000000000000       0x2c CMakeFiles/cube_robot.dir/home/wang/pico2/pico-sdk/src/rp2_common/pico_double/double_math.c.obj
 .text          0x0000000000000000        0x0 CMakeFiles/cube_robot.dir/home/wang/pico2/pico-sdk/src/rp2_common/pico_double/double_v1_rom_shim.S.obj
 .data          0x0000000000000000        0x0 CMakeFiles/cube_robot.dir/home/wang/pico2/pico-sdk/src/rp2_common/pico_double/double_v1_rom_shim.S.obj
 .bss           0x0000000000000000        0x0 CMakeFiles/cube_robot.dir/home/wang/pico2/pico-sdk/src/rp2_common/pico_double/double_v1_rom_shim.S.obj
 .text.dsqrt_shim
                0x0000000000000000      0x1a8 CMakeFiles/cube_robot.dir/home/wang/pico2/pico-sdk/src/rp2_common/pico_double/double_v1_rom_shim.S.obj
 .text.dcordic_vec_step
                0x0000000000000000        0xe CMakeFiles/cube_robot.dir/home/wang/pico2/pico-sdk/src/rp2_common/pico_double/double_v1_rom_shim.S.obj
 .text.dcordic_rot_step
                0x0000000000000000       0x76 CMakeFiles/cube_robot.dir/home/wang/pico2/pico-sdk/src/rp2_common/pico_double/double_v1_rom_shim.S.obj
 .text.double2int_shim
                0x0000000000000000        0xe CMakeFiles/cube_robot.dir/home/wang/pico2/pico-sdk/src/rp2_common/pico_double/double_v1_rom_shim.S.obj
 .text.double2int64_shim
                0x0000000000000000       0x1a CMakeFiles/cube_robot.dir/home/wang/pico2/pico-sdk/src/rp2_common/pico_double/double_v1_rom_shim.S.obj
 .text.double2float_shim
                0x0000000000000000       0x5c CMakeFiles/cube_robot.dir/home/wang/pico2/pico-sdk/src/rp2_common/pico_double/double_v1_rom_shim.S.obj
 .text.x2double_shims
                0x0000000000000000       0x90 CMakeFiles/cube_robot.dir/home/wang/pico2/pico-sdk/src/rp2_common/pico_double/double_v1_rom_shim.S.obj
 .text.dreduce  0x0000000000000000       0x82 CMakeFiles/cube_robot.dir/home/wang/pico2/pico-sdk/src/rp2_common/pico_double/double_v1_rom_shim.S.obj
 .text.dtan_shim
                0x0000000000000000       0x20 CMakeFiles/cube_robot.dir/home/wang/pico2/pico-sdk/src/rp2_common/pico_double/double_v1_rom_shim.S.obj
 .text.dcos_shim
                0x0000000000000000       0x10 CMakeFiles/cube_robot.dir/home/wang/pico2/pico-sdk/src/rp2_common/pico_double/double_v1_rom_shim.S.obj
 .text.dsin_shim
                0x0000000000000000       0x14 CMakeFiles/cube_robot.dir/home/wang/pico2/pico-sdk/src/rp2_common/pico_double/double_v1_rom_shim.S.obj
 .text.dsincos_shim
                0x0000000000000000       0x20 CMakeFiles/cube_robot.dir/home/wang/pico2/pico-sdk/src/rp2_common/pico_double/double_v1_rom_shim.S.obj
 .text.dtrig_guts
                0x0000000000000000      0x2ec CMakeFiles/cube_robot.dir/home/wang/pico2/pico-sdk/src/rp2_common/pico_double/double_v1_rom_shim.S.obj
 .text.dexp_guts
                0x0000000000000000      0x268 CMakeFiles/cube_robot.dir/home/wang/pico2/pico-sdk/src/rp2_common/pico_double/double_v1_rom_shim.S.obj
 .text          0x0000000000000000        0x0 CMakeFiles/cube_robot.dir/home/wang/pico2/pico-sdk/src/rp2_common/pico_int64_ops/pico_int64_ops_aeabi.S.obj
 .data          0x0000000000000000        0x0 CMakeFiles/cube_robot.dir/home/wang/pico2/pico-sdk/src/rp2_common/pico_int64_ops/pico_int64_ops_aeabi.S.obj
 .bss           0x0000000000000000        0x0 CMakeFiles/cube_robot.dir/home/wang/pico2/pico-sdk/src/rp2_common/pico_int64_ops/pico_int64_ops_aeabi.S.obj
 .text          0x0000000000000000        0x0 CMakeFiles/cube_robot.dir/home/wang/pico2/pico-sdk/src/rp2_common/pico_float/float_aeabi.S.obj
 .data          0x0000000000000000        0x0 CMakeFiles/cube_robot.dir/home/wang/pico2/pico-sdk/src/rp2_common/pico_float/float_aeabi.S.obj
 .bss           0x0000000000000000        0x0 CMakeFiles/cube_robot.dir/home/wang/pico2/pico-sdk/src/rp2_common/pico_float/float_aeabi.S.obj
 .text.__wrap___aeabi_cfcmple
                0x0000000000000000       0x50 CMakeFiles/cube_robot.dir/home/wang/pico2/pico-sdk/src/rp2_common/pico_float/float_aeabi.S.obj
 .text.__wrap___aeabi_fcmpeq
                0x0000000000000000       0x10 CMakeFiles/cube_robot.dir/home/wang/pico2/pico-sdk/src/rp2_common/pico_float/float_aeabi.S.obj
 .text.__wrap___aeabi_fcmplt
                0x0000000000000000        0xc CMakeFiles/cube_robot.dir/home/wang/pico2/pico-sdk/src/rp2_common/pico_float/float_aeabi.S.obj
 .text.__wrap___aeabi_fcmple
                0x0000000000000000       0x10 CMakeFiles/cube_robot.dir/home/wang/pico2/pico-sdk/src/rp2_common/pico_float/float_aeabi.S.obj
 .text.__wrap___aeabi_fcmpge
                0x0000000000000000       0x10 CMakeFiles/cube_robot.dir/home/wang/pico2/pico-sdk/src/rp2_common/pico_float/float_aeabi.S.obj
 .text.__wrap___aeabi_fcmpgt
                0x0000000000000000        0xa CMakeFiles/cube_robot.dir/home/wang/pico2/pico-sdk/src/rp2_common/pico_float/float_aeabi.S.obj
 .text.__wrap___aeabi_fcmpun
                0x0000000000000000       0x18 CMakeFiles/cube_robot.dir/home/wang/pico2/pico-sdk/src/rp2_common/pico_float/float_aeabi.S.obj
 .text.__wrap___aeabi_ui2f
                0x0000000000000000        0xa CMakeFiles/cube_robot.dir/home/wang/pico2/pico-sdk/src/rp2_common/pico_float/float_aeabi.S.obj
 .text.__wrap___aeabi_i2f
                0x0000000000000000       0x44 CMakeFiles/cube_robot.dir/home/wang/pico2/pico-sdk/src/rp2_common/pico_float/float_aeabi.S.obj
 .text.__wrap___aeabi_f2iz
                0x0000000000000000       0x4e CMakeFiles/cube_robot.dir/home/wang/pico2/pico-sdk/src/rp2_common/pico_float/float_aeabi.S.obj
 .text.float2int
                0x0000000000000000       0x14 CMakeFiles/cube_robot.dir/home/wang/pico2/pico-sdk/src/rp2_common/pico_float/float_aeabi.S.obj
 .text.float2fix
                0x0000000000000000       0x14 CMakeFiles/cube_robot.dir/home/wang/pico2/pico-sdk/src/rp2_common/pico_float/float_aeabi.S.obj
 .text.float2ufix
                0x0000000000000000        0xc CMakeFiles/cube_robot.dir/home/wang/pico2/pico-sdk/src/rp2_common/pico_float/float_aeabi.S.obj
 .text.__wrap___aeabi_f2uiz
                0x0000000000000000        0xc CMakeFiles/cube_robot.dir/home/wang/pico2/pico-sdk/src/rp2_common/pico_float/float_aeabi.S.obj
 .text.fix2float
                0x0000000000000000        0xc CMakeFiles/cube_robot.dir/home/wang/pico2/pico-sdk/src/rp2_common/pico_float/float_aeabi.S.obj
 .text.ufix2float
                0x0000000000000000        0xc CMakeFiles/cube_robot.dir/home/wang/pico2/pico-sdk/src/rp2_common/pico_float/float_aeabi.S.obj
 .text.fix642float
                0x0000000000000000       0x14 CMakeFiles/cube_robot.dir/home/wang/pico2/pico-sdk/src/rp2_common/pico_float/float_aeabi.S.obj
 .text.ufix642float
                0x0000000000000000       0x14 CMakeFiles/cube_robot.dir/home/wang/pico2/pico-sdk/src/rp2_common/pico_float/float_aeabi.S.obj
 .text.__wrap___aeabi_l2f
                0x0000000000000000       0x20 CMakeFiles/cube_robot.dir/home/wang/pico2/pico-sdk/src/rp2_common/pico_float/float_aeabi.S.obj
 .text.__wrap___aeabi_ul2f
                0x0000000000000000       0x20 CMakeFiles/cube_robot.dir/home/wang/pico2/pico-sdk/src/rp2_common/pico_float/float_aeabi.S.obj
 .text.__wrap___aeabi_f2lz
                0x0000000000000000       0x26 CMakeFiles/cube_robot.dir/home/wang/pico2/pico-sdk/src/rp2_common/pico_float/float_aeabi.S.obj
 .text.float2int64
                0x0000000000000000       0x14 CMakeFiles/cube_robot.dir/home/wang/pico2/pico-sdk/src/rp2_common/pico_float/float_aeabi.S.obj
 .text.float2fix64
                0x0000000000000000       0x14 CMakeFiles/cube_robot.dir/home/wang/pico2/pico-sdk/src/rp2_common/pico_float/float_aeabi.S.obj
 .text.float2ufix64
                0x0000000000000000       0x14 CMakeFiles/cube_robot.dir/home/wang/pico2/pico-sdk/src/rp2_common/pico_float/float_aeabi.S.obj
 .text.__wrap___aeabi_f2d
                0x0000000000000000       0x14 CMakeFiles/cube_robot.dir/home/wang/pico2/pico-sdk/src/rp2_common/pico_float/float_aeabi.S.obj
 .text.__wrap_cosf
                0x0000000000000000       0x24 CMakeFiles/cube_robot.dir/home/wang/pico2/pico-sdk/src/rp2_common/pico_float/float_aeabi.S.obj
 .text.__wrap_sinf
                0x0000000000000000       0x24 CMakeFiles/cube_robot.dir/home/wang/pico2/pico-sdk/src/rp2_common/pico_float/float_aeabi.S.obj
 .text.__wrap_sincosf
                0x0000000000000000       0x30 CMakeFiles/cube_robot.dir/home/wang/pico2/pico-sdk/src/rp2_common/pico_float/float_aeabi.S.obj
 .text.__wrap_tanf
                0x0000000000000000       0x4c CMakeFiles/cube_robot.dir/home/wang/pico2/pico-sdk/src/rp2_common/pico_float/float_aeabi.S.obj
 .text.__wrap_atan2f
                0x0000000000000000       0x14 CMakeFiles/cube_robot.dir/home/wang/pico2/pico-sdk/src/rp2_common/pico_float/float_aeabi.S.obj
 .text.__wrap_expf
                0x0000000000000000        0xc CMakeFiles/cube_robot.dir/home/wang/pico2/pico-sdk/src/rp2_common/pico_float/float_aeabi.S.obj
 .text.__wrap_logf
                0x0000000000000000        0xc CMakeFiles/cube_robot.dir/home/wang/pico2/pico-sdk/src/rp2_common/pico_float/float_aeabi.S.obj
 .text          0x0000000000000000        0x0 CMakeFiles/cube_robot.dir/home/wang/pico2/pico-sdk/src/rp2_common/pico_float/float_init_rom.c.obj
 .data          0x0000000000000000        0x0 CMakeFiles/cube_robot.dir/home/wang/pico2/pico-sdk/src/rp2_common/pico_float/float_init_rom.c.obj
 .bss           0x0000000000000000        0x0 CMakeFiles/cube_robot.dir/home/wang/pico2/pico-sdk/src/rp2_common/pico_float/float_init_rom.c.obj
 .bss.sf_clz_func
                0x0000000000000000        0x4 CMakeFiles/cube_robot.dir/home/wang/pico2/pico-sdk/src/rp2_common/pico_float/float_init_rom.c.obj
 .text          0x0000000000000000        0x0 CMakeFiles/cube_robot.dir/home/wang/pico2/pico-sdk/src/rp2_common/pico_float/float_math.c.obj
 .data          0x0000000000000000        0x0 CMakeFiles/cube_robot.dir/home/wang/pico2/pico-sdk/src/rp2_common/pico_float/float_math.c.obj
 .bss           0x0000000000000000        0x0 CMakeFiles/cube_robot.dir/home/wang/pico2/pico-sdk/src/rp2_common/pico_float/float_math.c.obj
 .text.fpow_int2
                0x0000000000000000       0xd4 CMakeFiles/cube_robot.dir/home/wang/pico2/pico-sdk/src/rp2_common/pico_float/float_math.c.obj
 .text.fpowint_0
                0x0000000000000000       0xe8 CMakeFiles/cube_robot.dir/home/wang/pico2/pico-sdk/src/rp2_common/pico_float/float_math.c.obj
 .text.fpow_0   0x0000000000000000       0xf8 CMakeFiles/cube_robot.dir/home/wang/pico2/pico-sdk/src/rp2_common/pico_float/float_math.c.obj
 .text.__wrap_ldexpf
                0x0000000000000000       0x30 CMakeFiles/cube_robot.dir/home/wang/pico2/pico-sdk/src/rp2_common/pico_float/float_math.c.obj
 .text.__wrap_copysignf
                0x0000000000000000        0xc CMakeFiles/cube_robot.dir/home/wang/pico2/pico-sdk/src/rp2_common/pico_float/float_math.c.obj
 .text.__wrap_truncf
                0x0000000000000000       0x20 CMakeFiles/cube_robot.dir/home/wang/pico2/pico-sdk/src/rp2_common/pico_float/float_math.c.obj
 .text.__wrap_floorf
                0x0000000000000000       0x40 CMakeFiles/cube_robot.dir/home/wang/pico2/pico-sdk/src/rp2_common/pico_float/float_math.c.obj
 .text.__wrap_ceilf
                0x0000000000000000       0x44 CMakeFiles/cube_robot.dir/home/wang/pico2/pico-sdk/src/rp2_common/pico_float/float_math.c.obj
 .text.__wrap_asinf
                0x0000000000000000       0x40 CMakeFiles/cube_robot.dir/home/wang/pico2/pico-sdk/src/rp2_common/pico_float/float_math.c.obj
 .text.__wrap_acosf
                0x0000000000000000       0x40 CMakeFiles/cube_robot.dir/home/wang/pico2/pico-sdk/src/rp2_common/pico_float/float_math.c.obj
 .text.__wrap_atanf
                0x0000000000000000       0x2c CMakeFiles/cube_robot.dir/home/wang/pico2/pico-sdk/src/rp2_common/pico_float/float_math.c.obj
 .text.__wrap_sinhf
                0x0000000000000000       0x3c CMakeFiles/cube_robot.dir/home/wang/pico2/pico-sdk/src/rp2_common/pico_float/float_math.c.obj
 .text.__wrap_coshf
                0x0000000000000000       0x3c CMakeFiles/cube_robot.dir/home/wang/pico2/pico-sdk/src/rp2_common/pico_float/float_math.c.obj
 .text.__wrap_tanhf
                0x0000000000000000       0x4c CMakeFiles/cube_robot.dir/home/wang/pico2/pico-sdk/src/rp2_common/pico_float/float_math.c.obj
 .text.__wrap_asinhf
                0x0000000000000000       0xb4 CMakeFiles/cube_robot.dir/home/wang/pico2/pico-sdk/src/rp2_common/pico_float/float_math.c.obj
 .text.__wrap_acoshf
                0x0000000000000000       0x70 CMakeFiles/cube_robot.dir/home/wang/pico2/pico-sdk/src/rp2_common/pico_float/float_math.c.obj
 .text.__wrap_atanhf
                0x0000000000000000       0x44 CMakeFiles/cube_robot.dir/home/wang/pico2/pico-sdk/src/rp2_common/pico_float/float_math.c.obj
 .text.__wrap_exp2f
                0x0000000000000000       0x20 CMakeFiles/cube_robot.dir/home/wang/pico2/pico-sdk/src/rp2_common/pico_float/float_math.c.obj
 .text.__wrap_log2f
                0x0000000000000000       0x14 CMakeFiles/cube_robot.dir/home/wang/pico2/pico-sdk/src/rp2_common/pico_float/float_math.c.obj
 .text.__wrap_exp10f
                0x0000000000000000       0x20 CMakeFiles/cube_robot.dir/home/wang/pico2/pico-sdk/src/rp2_common/pico_float/float_math.c.obj
 .text.__wrap_log10f
                0x0000000000000000       0x14 CMakeFiles/cube_robot.dir/home/wang/pico2/pico-sdk/src/rp2_common/pico_float/float_math.c.obj
 .text.__wrap_expm1f
                0x0000000000000000       0x1c CMakeFiles/cube_robot.dir/home/wang/pico2/pico-sdk/src/rp2_common/pico_float/float_math.c.obj
 .text.__wrap_log1pf
                0x0000000000000000       0x1c CMakeFiles/cube_robot.dir/home/wang/pico2/pico-sdk/src/rp2_common/pico_float/float_math.c.obj
 .text.__wrap_fmaf
                0x0000000000000000       0x3c CMakeFiles/cube_robot.dir/home/wang/pico2/pico-sdk/src/rp2_common/pico_float/float_math.c.obj
 .text.__wrap_powintf
                0x0000000000000000       0x88 CMakeFiles/cube_robot.dir/home/wang/pico2/pico-sdk/src/rp2_common/pico_float/float_math.c.obj
 .text.__wrap_powf
                0x0000000000000000      0x1ac CMakeFiles/cube_robot.dir/home/wang/pico2/pico-sdk/src/rp2_common/pico_float/float_math.c.obj
 .text.__wrap_hypotf
                0x0000000000000000      0x100 CMakeFiles/cube_robot.dir/home/wang/pico2/pico-sdk/src/rp2_common/pico_float/float_math.c.obj
 .text.__wrap_cbrtf
                0x0000000000000000       0x9c CMakeFiles/cube_robot.dir/home/wang/pico2/pico-sdk/src/rp2_common/pico_float/float_math.c.obj
 .text.__wrap_fmodf
                0x0000000000000000       0xbc CMakeFiles/cube_robot.dir/home/wang/pico2/pico-sdk/src/rp2_common/pico_float/float_math.c.obj
 .text.__wrap_remquof
                0x0000000000000000      0x14c CMakeFiles/cube_robot.dir/home/wang/pico2/pico-sdk/src/rp2_common/pico_float/float_math.c.obj
 .text.__wrap_dremf
                0x0000000000000000        0xc CMakeFiles/cube_robot.dir/home/wang/pico2/pico-sdk/src/rp2_common/pico_float/float_math.c.obj
 .text.__wrap_remainderf
                0x0000000000000000        0xc CMakeFiles/cube_robot.dir/home/wang/pico2/pico-sdk/src/rp2_common/pico_float/float_math.c.obj
 .text          0x0000000000000000        0x0 CMakeFiles/cube_robot.dir/home/wang/pico2/pico-sdk/src/rp2_common/pico_float/float_v1_rom_shim.S.obj
 .data          0x0000000000000000        0x0 CMakeFiles/cube_robot.dir/home/wang/pico2/pico-sdk/src/rp2_common/pico_float/float_v1_rom_shim.S.obj
 .bss           0x0000000000000000        0x0 CMakeFiles/cube_robot.dir/home/wang/pico2/pico-sdk/src/rp2_common/pico_float/float_v1_rom_shim.S.obj
 .text.642float_shims
                0x0000000000000000       0x44 CMakeFiles/cube_robot.dir/home/wang/pico2/pico-sdk/src/rp2_common/pico_float/float_v1_rom_shim.S.obj
 .text.fatan2_shim
                0x0000000000000000       0x88 CMakeFiles/cube_robot.dir/home/wang/pico2/pico-sdk/src/rp2_common/pico_float/float_v1_rom_shim.S.obj
 .text.float232_shims
                0x0000000000000000       0x18 CMakeFiles/cube_robot.dir/home/wang/pico2/pico-sdk/src/rp2_common/pico_float/float_v1_rom_shim.S.obj
 .text.float2double_shim
                0x0000000000000000       0x30 CMakeFiles/cube_robot.dir/home/wang/pico2/pico-sdk/src/rp2_common/pico_float/float_v1_rom_shim.S.obj
 .text          0x0000000000000000        0x0 CMakeFiles/cube_robot.dir/home/wang/pico2/pico-sdk/src/rp2_common/pico_malloc/pico_malloc.c.obj
 .data          0x0000000000000000        0x0 CMakeFiles/cube_robot.dir/home/wang/pico2/pico-sdk/src/rp2_common/pico_malloc/pico_malloc.c.obj
 .bss           0x0000000000000000        0x0 CMakeFiles/cube_robot.dir/home/wang/pico2/pico-sdk/src/rp2_common/pico_malloc/pico_malloc.c.obj
 .rodata.__wrap_malloc.str1.4
                0x0000000000000000        0xe CMakeFiles/cube_robot.dir/home/wang/pico2/pico-sdk/src/rp2_common/pico_malloc/pico_malloc.c.obj
 .text.__wrap_malloc
                0x0000000000000000       0x3c CMakeFiles/cube_robot.dir/home/wang/pico2/pico-sdk/src/rp2_common/pico_malloc/pico_malloc.c.obj
 .text.__wrap_calloc
                0x0000000000000000       0x40 CMakeFiles/cube_robot.dir/home/wang/pico2/pico-sdk/src/rp2_common/pico_malloc/pico_malloc.c.obj
 .text.__wrap_realloc
                0x0000000000000000       0x40 CMakeFiles/cube_robot.dir/home/wang/pico2/pico-sdk/src/rp2_common/pico_malloc/pico_malloc.c.obj
 .text.__wrap_free
                0x0000000000000000       0x20 CMakeFiles/cube_robot.dir/home/wang/pico2/pico-sdk/src/rp2_common/pico_malloc/pico_malloc.c.obj
 .data          0x0000000000000000        0x0 CMakeFiles/cube_robot.dir/home/wang/pico2/pico-sdk/src/rp2_common/pico_mem_ops/mem_ops_aeabi.S.obj
 .bss           0x0000000000000000        0x0 CMakeFiles/cube_robot.dir/home/wang/pico2/pico-sdk/src/rp2_common/pico_mem_ops/mem_ops_aeabi.S.obj
 .text.aeabi_memset_memcpy
                0x0000000000000000       0x24 CMakeFiles/cube_robot.dir/home/wang/pico2/pico-sdk/src/rp2_common/pico_mem_ops/mem_ops_aeabi.S.obj
 .text          0x0000000000000000        0x0 CMakeFiles/cube_robot.dir/home/wang/pico2/pico-sdk/src/rp2_common/pico_standard_link/crt0.S.obj
 .data          0x0000000000000000        0x0 CMakeFiles/cube_robot.dir/home/wang/pico2/pico-sdk/src/rp2_common/pico_standard_link/crt0.S.obj
 .bss           0x0000000000000000        0x0 CMakeFiles/cube_robot.dir/home/wang/pico2/pico-sdk/src/rp2_common/pico_standard_link/crt0.S.obj
 .text          0x0000000000000000        0x0 CMakeFiles/cube_robot.dir/home/wang/pico2/pico-sdk/src/rp2_common/pico_standard_link/new_delete.cpp.obj
 .data          0x0000000000000000        0x0 CMakeFiles/cube_robot.dir/home/wang/pico2/pico-sdk/src/rp2_common/pico_standard_link/new_delete.cpp.obj
 .bss           0x0000000000000000        0x0 CMakeFiles/cube_robot.dir/home/wang/pico2/pico-sdk/src/rp2_common/pico_standard_link/new_delete.cpp.obj
 .text._Znwj    0x0000000000000000        0x8 CMakeFiles/cube_robot.dir/home/wang/pico2/pico-sdk/src/rp2_common/pico_standard_link/new_delete.cpp.obj
 .text._Znaj    0x0000000000000000        0x8 CMakeFiles/cube_robot.dir/home/wang/pico2/pico-sdk/src/rp2_common/pico_standard_link/new_delete.cpp.obj
 .text._ZdlPv   0x0000000000000000        0x8 CMakeFiles/cube_robot.dir/home/wang/pico2/pico-sdk/src/rp2_common/pico_standard_link/new_delete.cpp.obj
 .text._ZdaPv   0x0000000000000000        0x8 CMakeFiles/cube_robot.dir/home/wang/pico2/pico-sdk/src/rp2_common/pico_standard_link/new_delete.cpp.obj
 .text._ZdlPvj  0x0000000000000000        0x8 CMakeFiles/cube_robot.dir/home/wang/pico2/pico-sdk/src/rp2_common/pico_standard_link/new_delete.cpp.obj
 .text._ZdaPvj  0x0000000000000000        0x8 CMakeFiles/cube_robot.dir/home/wang/pico2/pico-sdk/src/rp2_common/pico_standard_link/new_delete.cpp.obj
 .comment       0x0000000000000000       0x4a CMakeFiles/cube_robot.dir/home/wang/pico2/pico-sdk/src/rp2_common/pico_standard_link/new_delete.cpp.obj
 .ARM.attributes
                0x0000000000000000       0x2c CMakeFiles/cube_robot.dir/home/wang/pico2/pico-sdk/src/rp2_common/pico_standard_link/new_delete.cpp.obj
 .text          0x0000000000000000        0x0 CMakeFiles/cube_robot.dir/home/wang/pico2/pico-sdk/src/rp2_common/pico_standard_link/binary_info.c.obj
 .data          0x0000000000000000        0x0 CMakeFiles/cube_robot.dir/home/wang/pico2/pico-sdk/src/rp2_common/pico_standard_link/binary_info.c.obj
 .bss           0x0000000000000000        0x0 CMakeFiles/cube_robot.dir/home/wang/pico2/pico-sdk/src/rp2_common/pico_standard_link/binary_info.c.obj
 .text          0x0000000000000000        0x0 CMakeFiles/cube_robot.dir/home/wang/pico2/pico-sdk/src/rp2_common/pico_stdio/stdio.c.obj
 .data          0x0000000000000000        0x0 CMakeFiles/cube_robot.dir/home/wang/pico2/pico-sdk/src/rp2_common/pico_stdio/stdio.c.obj
 .bss           0x0000000000000000        0x0 CMakeFiles/cube_robot.dir/home/wang/pico2/pico-sdk/src/rp2_common/pico_stdio/stdio.c.obj
 .text.stdout_serialize_begin
                0x0000000000000000       0x30 CMakeFiles/cube_robot.dir/home/wang/pico2/pico-sdk/src/rp2_common/pico_stdio/stdio.c.obj
 .text.stdout_serialize_end
                0x0000000000000000       0x10 CMakeFiles/cube_robot.dir/home/wang/pico2/pico-sdk/src/rp2_common/pico_stdio/stdio.c.obj
 .text.putchar_raw
                0x0000000000000000       0x98 CMakeFiles/cube_robot.dir/home/wang/pico2/pico-sdk/src/rp2_common/pico_stdio/stdio.c.obj
 .text.puts_raw
                0x0000000000000000       0x3c CMakeFiles/cube_robot.dir/home/wang/pico2/pico-sdk/src/rp2_common/pico_stdio/stdio.c.obj
 .text._read    0x0000000000000000       0x94 CMakeFiles/cube_robot.dir/home/wang/pico2/pico-sdk/src/rp2_common/pico_stdio/stdio.c.obj
 .text._write   0x0000000000000000       0xac CMakeFiles/cube_robot.dir/home/wang/pico2/pico-sdk/src/rp2_common/pico_stdio/stdio.c.obj
 .text._open    0x0000000000000000        0xc CMakeFiles/cube_robot.dir/home/wang/pico2/pico-sdk/src/rp2_common/pico_stdio/stdio.c.obj
 .text._close   0x0000000000000000        0x8 CMakeFiles/cube_robot.dir/home/wang/pico2/pico-sdk/src/rp2_common/pico_stdio/stdio.c.obj
 .text._lseek   0x0000000000000000        0x8 CMakeFiles/cube_robot.dir/home/wang/pico2/pico-sdk/src/rp2_common/pico_stdio/stdio.c.obj
 .text._fstat   0x0000000000000000        0x8 CMakeFiles/cube_robot.dir/home/wang/pico2/pico-sdk/src/rp2_common/pico_stdio/stdio.c.obj
 .text._isatty  0x0000000000000000        0xc CMakeFiles/cube_robot.dir/home/wang/pico2/pico-sdk/src/rp2_common/pico_stdio/stdio.c.obj
 .text.stdio_flush
                0x0000000000000000       0x28 CMakeFiles/cube_robot.dir/home/wang/pico2/pico-sdk/src/rp2_common/pico_stdio/stdio.c.obj
 .text.__wrap_getchar
                0x0000000000000000       0x74 CMakeFiles/cube_robot.dir/home/wang/pico2/pico-sdk/src/rp2_common/pico_stdio/stdio.c.obj
 .text.getchar_timeout_us
                0x0000000000000000       0x98 CMakeFiles/cube_robot.dir/home/wang/pico2/pico-sdk/src/rp2_common/pico_stdio/stdio.c.obj
 .text.stdio_filter_driver
                0x0000000000000000        0xc CMakeFiles/cube_robot.dir/home/wang/pico2/pico-sdk/src/rp2_common/pico_stdio/stdio.c.obj
 .text.stdio_set_translate_crlf
                0x0000000000000000       0x10 CMakeFiles/cube_robot.dir/home/wang/pico2/pico-sdk/src/rp2_common/pico_stdio/stdio.c.obj
 .text.stdio_set_chars_available_callback
                0x0000000000000000       0x30 CMakeFiles/cube_robot.dir/home/wang/pico2/pico-sdk/src/rp2_common/pico_stdio/stdio.c.obj
 .text          0x0000000000000000        0x0 CMakeFiles/cube_robot.dir/home/wang/pico2/pico-sdk/src/rp2_common/pico_stdio_usb/reset_interface.c.obj
 .data          0x0000000000000000        0x0 CMakeFiles/cube_robot.dir/home/wang/pico2/pico-sdk/src/rp2_common/pico_stdio_usb/reset_interface.c.obj
 .bss           0x0000000000000000        0x0 CMakeFiles/cube_robot.dir/home/wang/pico2/pico-sdk/src/rp2_common/pico_stdio_usb/reset_interface.c.obj
 .text          0x0000000000000000        0x0 CMakeFiles/cube_robot.dir/home/wang/pico2/pico-sdk/src/rp2_common/pico_stdio_usb/stdio_usb.c.obj
 .data          0x0000000000000000        0x0 CMakeFiles/cube_robot.dir/home/wang/pico2/pico-sdk/src/rp2_common/pico_stdio_usb/stdio_usb.c.obj
 .bss           0x0000000000000000        0x0 CMakeFiles/cube_robot.dir/home/wang/pico2/pico-sdk/src/rp2_common/pico_stdio_usb/stdio_usb.c.obj
 .text.stdio_usb_connected
                0x0000000000000000        0xc CMakeFiles/cube_robot.dir/home/wang/pico2/pico-sdk/src/rp2_common/pico_stdio_usb/stdio_usb.c.obj
 .text          0x0000000000000000        0x0 CMakeFiles/cube_robot.dir/home/wang/pico2/pico-sdk/src/rp2_common/pico_stdio_usb/stdio_usb_descriptors.c.obj
 .data          0x0000000000000000        0x0 CMakeFiles/cube_robot.dir/home/wang/pico2/pico-sdk/src/rp2_common/pico_stdio_usb/stdio_usb_descriptors.c.obj
 .bss           0x0000000000000000        0x0 CMakeFiles/cube_robot.dir/home/wang/pico2/pico-sdk/src/rp2_common/pico_stdio_usb/stdio_usb_descriptors.c.obj
 .text          0x0000000000000000        0x0 CMakeFiles/cube_robot.dir/home/wang/pico2/pico-sdk/src/rp2_common/pico_unique_id/unique_id.c.obj
 .data          0x0000000000000000        0x0 CMakeFiles/cube_robot.dir/home/wang/pico2/pico-sdk/src/rp2_common/pico_unique_id/unique_id.c.obj
 .bss           0x0000000000000000        0x0 CMakeFiles/cube_robot.dir/home/wang/pico2/pico-sdk/src/rp2_common/pico_unique_id/unique_id.c.obj
 .text.pico_get_unique_board_id
                0x0000000000000000       0x10 CMakeFiles/cube_robot.dir/home/wang/pico2/pico-sdk/src/rp2_common/pico_unique_id/unique_id.c.obj
 .text          0x0000000000000000        0x0 CMakeFiles/cube_robot.dir/home/wang/pico2/pico-sdk/src/rp2_common/hardware_flash/flash.c.obj
 .data          0x0000000000000000        0x0 CMakeFiles/cube_robot.dir/home/wang/pico2/pico-sdk/src/rp2_common/hardware_flash/flash.c.obj
 .bss           0x0000000000000000        0x0 CMakeFiles/cube_robot.dir/home/wang/pico2/pico-sdk/src/rp2_common/hardware_flash/flash.c.obj
 .time_critical.flash_range_erase
                0x0000000000000000       0x80 CMakeFiles/cube_robot.dir/home/wang/pico2/pico-sdk/src/rp2_common/hardware_flash/flash.c.obj
 .time_critical.flash_range_program
                0x0000000000000000       0x80 CMakeFiles/cube_robot.dir/home/wang/pico2/pico-sdk/src/rp2_common/hardware_flash/flash.c.obj
 .text          0x0000000000000000        0x0 CMakeFiles/cube_robot.dir/home/wang/pico2/pico-sdk/lib/tinyusb/src/portable/raspberrypi/rp2040/dcd_rp2040.c.obj
 .data          0x0000000000000000        0x0 CMakeFiles/cube_robot.dir/home/wang/pico2/pico-sdk/lib/tinyusb/src/portable/raspberrypi/rp2040/dcd_rp2040.c.obj
 .bss           0x0000000000000000        0x0 CMakeFiles/cube_robot.dir/home/wang/pico2/pico-sdk/lib/tinyusb/src/portable/raspberrypi/rp2040/dcd_rp2040.c.obj
 .text.dcd_int_disable
                0x0000000000000000        0xc CMakeFiles/cube_robot.dir/home/wang/pico2/pico-sdk/lib/tinyusb/src/portable/raspberrypi/rp2040/dcd_rp2040.c.obj
 .text.dcd_remote_wakeup
                0x0000000000000000       0x18 CMakeFiles/cube_robot.dir/home/wang/pico2/pico-sdk/lib/tinyusb/src/portable/raspberrypi/rp2040/dcd_rp2040.c.obj
 .text.dcd_disconnect
                0x0000000000000000       0x10 CMakeFiles/cube_robot.dir/home/wang/pico2/pico-sdk/lib/tinyusb/src/portable/raspberrypi/rp2040/dcd_rp2040.c.obj
 .text.dcd_sof_enable
                0x0000000000000000       0x1c CMakeFiles/cube_robot.dir/home/wang/pico2/pico-sdk/lib/tinyusb/src/portable/raspberrypi/rp2040/dcd_rp2040.c.obj
 .text.dcd_edpt_close
                0x0000000000000000      0x15c CMakeFiles/cube_robot.dir/home/wang/pico2/pico-sdk/lib/tinyusb/src/portable/raspberrypi/rp2040/dcd_rp2040.c.obj
 .time_critical.dcd_int_handler
                0x0000000000000000        0x8 CMakeFiles/cube_robot.dir/home/wang/pico2/pico-sdk/lib/tinyusb/src/portable/raspberrypi/rp2040/dcd_rp2040.c.obj
 .text          0x0000000000000000        0x0 CMakeFiles/cube_robot.dir/home/wang/pico2/pico-sdk/lib/tinyusb/src/portable/raspberrypi/rp2040/rp2040_usb.c.obj
 .data          0x0000000000000000        0x0 CMakeFiles/cube_robot.dir/home/wang/pico2/pico-sdk/lib/tinyusb/src/portable/raspberrypi/rp2040/rp2040_usb.c.obj
 .bss           0x0000000000000000        0x0 CMakeFiles/cube_robot.dir/home/wang/pico2/pico-sdk/lib/tinyusb/src/portable/raspberrypi/rp2040/rp2040_usb.c.obj
 .text          0x0000000000000000        0x0 CMakeFiles/cube_robot.dir/home/wang/pico2/pico-sdk/lib/tinyusb/src/device/usbd.c.obj
 .data          0x0000000000000000        0x0 CMakeFiles/cube_robot.dir/home/wang/pico2/pico-sdk/lib/tinyusb/src/device/usbd.c.obj
 .bss           0x0000000000000000        0x0 CMakeFiles/cube_robot.dir/home/wang/pico2/pico-sdk/lib/tinyusb/src/device/usbd.c.obj
 .text.tud_speed_get
                0x0000000000000000        0xc CMakeFiles/cube_robot.dir/home/wang/pico2/pico-sdk/lib/tinyusb/src/device/usbd.c.obj
 .text.tud_connected
                0x0000000000000000       0x10 CMakeFiles/cube_robot.dir/home/wang/pico2/pico-sdk/lib/tinyusb/src/device/usbd.c.obj
 .text.tud_remote_wakeup
                0x0000000000000000       0x30 CMakeFiles/cube_robot.dir/home/wang/pico2/pico-sdk/lib/tinyusb/src/device/usbd.c.obj
 .text.tud_disconnect
                0x0000000000000000       0x20 CMakeFiles/cube_robot.dir/home/wang/pico2/pico-sdk/lib/tinyusb/src/device/usbd.c.obj
 .text.tud_connect
                0x0000000000000000       0x20 CMakeFiles/cube_robot.dir/home/wang/pico2/pico-sdk/lib/tinyusb/src/device/usbd.c.obj
 .text.tud_task_event_ready
                0x0000000000000000       0x20 CMakeFiles/cube_robot.dir/home/wang/pico2/pico-sdk/lib/tinyusb/src/device/usbd.c.obj
 .text.usbd_int_set
                0x0000000000000000       0x1c CMakeFiles/cube_robot.dir/home/wang/pico2/pico-sdk/lib/tinyusb/src/device/usbd.c.obj
 .text.usbd_edpt_xfer_fifo
                0x0000000000000000       0x4c CMakeFiles/cube_robot.dir/home/wang/pico2/pico-sdk/lib/tinyusb/src/device/usbd.c.obj
 .text.usbd_edpt_busy
                0x0000000000000000       0x1c CMakeFiles/cube_robot.dir/home/wang/pico2/pico-sdk/lib/tinyusb/src/device/usbd.c.obj
 .text.usbd_edpt_stall
                0x0000000000000000       0x3c CMakeFiles/cube_robot.dir/home/wang/pico2/pico-sdk/lib/tinyusb/src/device/usbd.c.obj
 .text.usbd_edpt_clear_stall
                0x0000000000000000       0x3c CMakeFiles/cube_robot.dir/home/wang/pico2/pico-sdk/lib/tinyusb/src/device/usbd.c.obj
 .text.usbd_edpt_stalled
                0x0000000000000000       0x1c CMakeFiles/cube_robot.dir/home/wang/pico2/pico-sdk/lib/tinyusb/src/device/usbd.c.obj
 .text.usbd_edpt_close
                0x0000000000000000       0x48 CMakeFiles/cube_robot.dir/home/wang/pico2/pico-sdk/lib/tinyusb/src/device/usbd.c.obj
 .text.usbd_sof_enable
                0x0000000000000000       0x10 CMakeFiles/cube_robot.dir/home/wang/pico2/pico-sdk/lib/tinyusb/src/device/usbd.c.obj
 .text          0x0000000000000000        0x0 CMakeFiles/cube_robot.dir/home/wang/pico2/pico-sdk/lib/tinyusb/src/device/usbd_control.c.obj
 .data          0x0000000000000000        0x0 CMakeFiles/cube_robot.dir/home/wang/pico2/pico-sdk/lib/tinyusb/src/device/usbd_control.c.obj
 .bss           0x0000000000000000        0x0 CMakeFiles/cube_robot.dir/home/wang/pico2/pico-sdk/lib/tinyusb/src/device/usbd_control.c.obj
 .text          0x0000000000000000        0x0 CMakeFiles/cube_robot.dir/home/wang/pico2/pico-sdk/lib/tinyusb/src/class/audio/audio_device.c.obj
 .data          0x0000000000000000        0x0 CMakeFiles/cube_robot.dir/home/wang/pico2/pico-sdk/lib/tinyusb/src/class/audio/audio_device.c.obj
 .bss           0x0000000000000000        0x0 CMakeFiles/cube_robot.dir/home/wang/pico2/pico-sdk/lib/tinyusb/src/class/audio/audio_device.c.obj
 .comment       0x0000000000000000       0x4a CMakeFiles/cube_robot.dir/home/wang/pico2/pico-sdk/lib/tinyusb/src/class/audio/audio_device.c.obj
 .ARM.attributes
                0x0000000000000000       0x2c CMakeFiles/cube_robot.dir/home/wang/pico2/pico-sdk/lib/tinyusb/src/class/audio/audio_device.c.obj
 .text          0x0000000000000000        0x0 CMakeFiles/cube_robot.dir/home/wang/pico2/pico-sdk/lib/tinyusb/src/class/cdc/cdc_device.c.obj
 .data          0x0000000000000000        0x0 CMakeFiles/cube_robot.dir/home/wang/pico2/pico-sdk/lib/tinyusb/src/class/cdc/cdc_device.c.obj
 .bss           0x0000000000000000        0x0 CMakeFiles/cube_robot.dir/home/wang/pico2/pico-sdk/lib/tinyusb/src/class/cdc/cdc_device.c.obj
 .text.tud_cdc_n_get_line_state
                0x0000000000000000       0x14 CMakeFiles/cube_robot.dir/home/wang/pico2/pico-sdk/lib/tinyusb/src/class/cdc/cdc_device.c.obj
 .text.tud_cdc_n_get_line_coding
                0x0000000000000000       0x20 CMakeFiles/cube_robot.dir/home/wang/pico2/pico-sdk/lib/tinyusb/src/class/cdc/cdc_device.c.obj
 .text.tud_cdc_n_set_wanted_char
                0x0000000000000000       0x14 CMakeFiles/cube_robot.dir/home/wang/pico2/pico-sdk/lib/tinyusb/src/class/cdc/cdc_device.c.obj
 .text.tud_cdc_n_peek
                0x0000000000000000       0x18 CMakeFiles/cube_robot.dir/home/wang/pico2/pico-sdk/lib/tinyusb/src/class/cdc/cdc_device.c.obj
 .text.tud_cdc_n_read_flush
                0x0000000000000000       0x5c CMakeFiles/cube_robot.dir/home/wang/pico2/pico-sdk/lib/tinyusb/src/class/cdc/cdc_device.c.obj
 .text.tud_cdc_n_write_clear
                0x0000000000000000       0x18 CMakeFiles/cube_robot.dir/home/wang/pico2/pico-sdk/lib/tinyusb/src/class/cdc/cdc_device.c.obj
 .text          0x0000000000000000        0x0 CMakeFiles/cube_robot.dir/home/wang/pico2/pico-sdk/lib/tinyusb/src/class/dfu/dfu_device.c.obj
 .data          0x0000000000000000        0x0 CMakeFiles/cube_robot.dir/home/wang/pico2/pico-sdk/lib/tinyusb/src/class/dfu/dfu_device.c.obj
 .bss           0x0000000000000000        0x0 CMakeFiles/cube_robot.dir/home/wang/pico2/pico-sdk/lib/tinyusb/src/class/dfu/dfu_device.c.obj
 .comment       0x0000000000000000       0x4a CMakeFiles/cube_robot.dir/home/wang/pico2/pico-sdk/lib/tinyusb/src/class/dfu/dfu_device.c.obj
 .ARM.attributes
                0x0000000000000000       0x2c CMakeFiles/cube_robot.dir/home/wang/pico2/pico-sdk/lib/tinyusb/src/class/dfu/dfu_device.c.obj
 .text          0x0000000000000000        0x0 CMakeFiles/cube_robot.dir/home/wang/pico2/pico-sdk/lib/tinyusb/src/class/dfu/dfu_rt_device.c.obj
 .data          0x0000000000000000        0x0 CMakeFiles/cube_robot.dir/home/wang/pico2/pico-sdk/lib/tinyusb/src/class/dfu/dfu_rt_device.c.obj
 .bss           0x0000000000000000        0x0 CMakeFiles/cube_robot.dir/home/wang/pico2/pico-sdk/lib/tinyusb/src/class/dfu/dfu_rt_device.c.obj
 .comment       0x0000000000000000       0x4a CMakeFiles/cube_robot.dir/home/wang/pico2/pico-sdk/lib/tinyusb/src/class/dfu/dfu_rt_device.c.obj
 .ARM.attributes
                0x0000000000000000       0x2c CMakeFiles/cube_robot.dir/home/wang/pico2/pico-sdk/lib/tinyusb/src/class/dfu/dfu_rt_device.c.obj
 .text          0x0000000000000000        0x0 CMakeFiles/cube_robot.dir/home/wang/pico2/pico-sdk/lib/tinyusb/src/class/hid/hid_device.c.obj
 .data          0x0000000000000000        0x0 CMakeFiles/cube_robot.dir/home/wang/pico2/pico-sdk/lib/tinyusb/src/class/hid/hid_device.c.obj
 .bss           0x0000000000000000        0x0 CMakeFiles/cube_robot.dir/home/wang/pico2/pico-sdk/lib/tinyusb/src/class/hid/hid_device.c.obj
 .comment       0x0000000000000000       0x4a CMakeFiles/cube_robot.dir/home/wang/pico2/pico-sdk/lib/tinyusb/src/class/hid/hid_device.c.obj
 .ARM.attributes
                0x0000000000000000       0x2c CMakeFiles/cube_robot.dir/home/wang/pico2/pico-sdk/lib/tinyusb/src/class/hid/hid_device.c.obj
 .text          0x0000000000000000        0x0 CMakeFiles/cube_robot.dir/home/wang/pico2/pico-sdk/lib/tinyusb/src/class/midi/midi_device.c.obj
 .data          0x0000000000000000        0x0 CMakeFiles/cube_robot.dir/home/wang/pico2/pico-sdk/lib/tinyusb/src/class/midi/midi_device.c.obj
 .bss           0x0000000000000000        0x0 CMakeFiles/cube_robot.dir/home/wang/pico2/pico-sdk/lib/tinyusb/src/class/midi/midi_device.c.obj
 .comment       0x0000000000000000       0x4a CMakeFiles/cube_robot.dir/home/wang/pico2/pico-sdk/lib/tinyusb/src/class/midi/midi_device.c.obj
 .ARM.attributes
                0x0000000000000000       0x2c CMakeFiles/cube_robot.dir/home/wang/pico2/pico-sdk/lib/tinyusb/src/class/midi/midi_device.c.obj
 .text          0x0000000000000000        0x0 CMakeFiles/cube_robot.dir/home/wang/pico2/pico-sdk/lib/tinyusb/src/class/msc/msc_device.c.obj
 .data          0x0000000000000000        0x0 CMakeFiles/cube_robot.dir/home/wang/pico2/pico-sdk/lib/tinyusb/src/class/msc/msc_device.c.obj
 .bss           0x0000000000000000        0x0 CMakeFiles/cube_robot.dir/home/wang/pico2/pico-sdk/lib/tinyusb/src/class/msc/msc_device.c.obj
 .comment       0x0000000000000000       0x4a CMakeFiles/cube_robot.dir/home/wang/pico2/pico-sdk/lib/tinyusb/src/class/msc/msc_device.c.obj
 .ARM.attributes
                0x0000000000000000       0x2c CMakeFiles/cube_robot.dir/home/wang/pico2/pico-sdk/lib/tinyusb/src/class/msc/msc_device.c.obj
 .text          0x0000000000000000        0x0 CMakeFiles/cube_robot.dir/home/wang/pico2/pico-sdk/lib/tinyusb/src/class/net/ecm_rndis_device.c.obj
 .data          0x0000000000000000        0x0 CMakeFiles/cube_robot.dir/home/wang/pico2/pico-sdk/lib/tinyusb/src/class/net/ecm_rndis_device.c.obj
 .bss           0x0000000000000000        0x0 CMakeFiles/cube_robot.dir/home/wang/pico2/pico-sdk/lib/tinyusb/src/class/net/ecm_rndis_device.c.obj
 .comment       0x0000000000000000       0x4a CMakeFiles/cube_robot.dir/home/wang/pico2/pico-sdk/lib/tinyusb/src/class/net/ecm_rndis_device.c.obj
 .ARM.attributes
                0x0000000000000000       0x2c CMakeFiles/cube_robot.dir/home/wang/pico2/pico-sdk/lib/tinyusb/src/class/net/ecm_rndis_device.c.obj
 .text          0x0000000000000000        0x0 CMakeFiles/cube_robot.dir/home/wang/pico2/pico-sdk/lib/tinyusb/src/class/net/ncm_device.c.obj
 .data          0x0000000000000000        0x0 CMakeFiles/cube_robot.dir/home/wang/pico2/pico-sdk/lib/tinyusb/src/class/net/ncm_device.c.obj
 .bss           0x0000000000000000        0x0 CMakeFiles/cube_robot.dir/home/wang/pico2/pico-sdk/lib/tinyusb/src/class/net/ncm_device.c.obj
 .comment       0x0000000000000000       0x4a CMakeFiles/cube_robot.dir/home/wang/pico2/pico-sdk/lib/tinyusb/src/class/net/ncm_device.c.obj
 .ARM.attributes
                0x0000000000000000       0x2c CMakeFiles/cube_robot.dir/home/wang/pico2/pico-sdk/lib/tinyusb/src/class/net/ncm_device.c.obj
 .text          0x0000000000000000        0x0 CMakeFiles/cube_robot.dir/home/wang/pico2/pico-sdk/lib/tinyusb/src/class/usbtmc/usbtmc_device.c.obj
 .data          0x0000000000000000        0x0 CMakeFiles/cube_robot.dir/home/wang/pico2/pico-sdk/lib/tinyusb/src/class/usbtmc/usbtmc_device.c.obj
 .bss           0x0000000000000000        0x0 CMakeFiles/cube_robot.dir/home/wang/pico2/pico-sdk/lib/tinyusb/src/class/usbtmc/usbtmc_device.c.obj
 .comment       0x0000000000000000       0x4a CMakeFiles/cube_robot.dir/home/wang/pico2/pico-sdk/lib/tinyusb/src/class/usbtmc/usbtmc_device.c.obj
 .ARM.attributes
                0x0000000000000000       0x2c CMakeFiles/cube_robot.dir/home/wang/pico2/pico-sdk/lib/tinyusb/src/class/usbtmc/usbtmc_device.c.obj
 .text          0x0000000000000000        0x0 CMakeFiles/cube_robot.dir/home/wang/pico2/pico-sdk/lib/tinyusb/src/class/vendor/vendor_device.c.obj
 .data          0x0000000000000000        0x0 CMakeFiles/cube_robot.dir/home/wang/pico2/pico-sdk/lib/tinyusb/src/class/vendor/vendor_device.c.obj
 .bss           0x0000000000000000        0x0 CMakeFiles/cube_robot.dir/home/wang/pico2/pico-sdk/lib/tinyusb/src/class/vendor/vendor_device.c.obj
 .comment       0x0000000000000000       0x4a CMakeFiles/cube_robot.dir/home/wang/pico2/pico-sdk/lib/tinyusb/src/class/vendor/vendor_device.c.obj
 .ARM.attributes
                0x0000000000000000       0x2c CMakeFiles/cube_robot.dir/home/wang/pico2/pico-sdk/lib/tinyusb/src/class/vendor/vendor_device.c.obj
 .text          0x0000000000000000        0x0 CMakeFiles/cube_robot.dir/home/wang/pico2/pico-sdk/lib/tinyusb/src/class/video/video_device.c.obj
 .data          0x0000000000000000        0x0 CMakeFiles/cube_robot.dir/home/wang/pico2/pico-sdk/lib/tinyusb/src/class/video/video_device.c.obj
 .bss           0x0000000000000000        0x0 CMakeFiles/cube_robot.dir/home/wang/pico2/pico-sdk/lib/tinyusb/src/class/video/video_device.c.obj
 .comment       0x0000000000000000       0x4a CMakeFiles/cube_robot.dir/home/wang/pico2/pico-sdk/lib/tinyusb/src/class/video/video_device.c.obj
 .ARM.attributes
                0x0000000000000000       0x2c CMakeFiles/cube_robot.dir/home/wang/pico2/pico-sdk/lib/tinyusb/src/class/video/video_device.c.obj
 .text          0x0000000000000000        0x0 CMakeFiles/cube_robot.dir/home/wang/pico2/pico-sdk/lib/tinyusb/src/tusb.c.obj
 .data          0x0000000000000000        0x0 CMakeFiles/cube_robot.dir/home/wang/pico2/pico-sdk/lib/tinyusb/src/tusb.c.obj
 .bss           0x0000000000000000        0x0 CMakeFiles/cube_robot.dir/home/wang/pico2/pico-sdk/lib/tinyusb/src/tusb.c.obj
 .text.tu_desc_find
                0x0000000000000000       0x18 CMakeFiles/cube_robot.dir/home/wang/pico2/pico-sdk/lib/tinyusb/src/tusb.c.obj
 .text.tu_desc_find2
                0x0000000000000000       0x28 CMakeFiles/cube_robot.dir/home/wang/pico2/pico-sdk/lib/tinyusb/src/tusb.c.obj
 .text.tu_desc_find3
                0x0000000000000000       0x30 CMakeFiles/cube_robot.dir/home/wang/pico2/pico-sdk/lib/tinyusb/src/tusb.c.obj
 .text.tu_desc_get_interface_total_len
                0x0000000000000000       0x4c CMakeFiles/cube_robot.dir/home/wang/pico2/pico-sdk/lib/tinyusb/src/tusb.c.obj
 .text.tu_edpt_stream_init
                0x0000000000000000       0x6c CMakeFiles/cube_robot.dir/home/wang/pico2/pico-sdk/lib/tinyusb/src/tusb.c.obj
 .text.tu_edpt_stream_write_zlp_if_needed
                0x0000000000000000       0x44 CMakeFiles/cube_robot.dir/home/wang/pico2/pico-sdk/lib/tinyusb/src/tusb.c.obj
 .text.tu_edpt_stream_write_xfer
                0x0000000000000000       0x60 CMakeFiles/cube_robot.dir/home/wang/pico2/pico-sdk/lib/tinyusb/src/tusb.c.obj
 .text.tu_edpt_stream_write
                0x0000000000000000       0x34 CMakeFiles/cube_robot.dir/home/wang/pico2/pico-sdk/lib/tinyusb/src/tusb.c.obj
 .text.tu_edpt_stream_read_xfer
                0x0000000000000000       0x78 CMakeFiles/cube_robot.dir/home/wang/pico2/pico-sdk/lib/tinyusb/src/tusb.c.obj
 .text.tu_edpt_stream_read
                0x0000000000000000       0x7c CMakeFiles/cube_robot.dir/home/wang/pico2/pico-sdk/lib/tinyusb/src/tusb.c.obj
 .text          0x0000000000000000        0x0 CMakeFiles/cube_robot.dir/home/wang/pico2/pico-sdk/lib/tinyusb/src/common/tusb_fifo.c.obj
 .data          0x0000000000000000        0x0 CMakeFiles/cube_robot.dir/home/wang/pico2/pico-sdk/lib/tinyusb/src/common/tusb_fifo.c.obj
 .bss           0x0000000000000000        0x0 CMakeFiles/cube_robot.dir/home/wang/pico2/pico-sdk/lib/tinyusb/src/common/tusb_fifo.c.obj
 .text.tu_fifo_full
                0x0000000000000000       0x28 CMakeFiles/cube_robot.dir/home/wang/pico2/pico-sdk/lib/tinyusb/src/common/tusb_fifo.c.obj
 .text.tu_fifo_overflowed
                0x0000000000000000       0x28 CMakeFiles/cube_robot.dir/home/wang/pico2/pico-sdk/lib/tinyusb/src/common/tusb_fifo.c.obj
 .text.tu_fifo_correct_read_pointer
                0x0000000000000000       0x34 CMakeFiles/cube_robot.dir/home/wang/pico2/pico-sdk/lib/tinyusb/src/common/tusb_fifo.c.obj
 .text.tu_fifo_read_n_const_addr_full_words
                0x0000000000000000      0x268 CMakeFiles/cube_robot.dir/home/wang/pico2/pico-sdk/lib/tinyusb/src/common/tusb_fifo.c.obj
 .text.tu_fifo_peek
                0x0000000000000000       0x80 CMakeFiles/cube_robot.dir/home/wang/pico2/pico-sdk/lib/tinyusb/src/common/tusb_fifo.c.obj
 .text.tu_fifo_peek_n
                0x0000000000000000       0xcc CMakeFiles/cube_robot.dir/home/wang/pico2/pico-sdk/lib/tinyusb/src/common/tusb_fifo.c.obj
 .text.tu_fifo_write_n_const_addr_full_words
                0x0000000000000000      0x294 CMakeFiles/cube_robot.dir/home/wang/pico2/pico-sdk/lib/tinyusb/src/common/tusb_fifo.c.obj
 .text.tu_fifo_advance_write_pointer
                0x0000000000000000       0x1c CMakeFiles/cube_robot.dir/home/wang/pico2/pico-sdk/lib/tinyusb/src/common/tusb_fifo.c.obj
 .text.tu_fifo_advance_read_pointer
                0x0000000000000000       0x1c CMakeFiles/cube_robot.dir/home/wang/pico2/pico-sdk/lib/tinyusb/src/common/tusb_fifo.c.obj
 .text.tu_fifo_get_read_info
                0x0000000000000000       0x9c CMakeFiles/cube_robot.dir/home/wang/pico2/pico-sdk/lib/tinyusb/src/common/tusb_fifo.c.obj
 .text.tu_fifo_get_write_info
                0x0000000000000000       0x64 CMakeFiles/cube_robot.dir/home/wang/pico2/pico-sdk/lib/tinyusb/src/common/tusb_fifo.c.obj
 .text          0x0000000000000000        0x0 CMakeFiles/cube_robot.dir/home/wang/pico2/pico-sdk/src/rp2_common/pico_fix/rp2040_usb_device_enumeration/rp2040_usb_device_enumeration.c.obj
 .data          0x0000000000000000        0x0 CMakeFiles/cube_robot.dir/home/wang/pico2/pico-sdk/src/rp2_common/pico_fix/rp2040_usb_device_enumeration/rp2040_usb_device_enumeration.c.obj
 .bss           0x0000000000000000        0x0 CMakeFiles/cube_robot.dir/home/wang/pico2/pico-sdk/src/rp2_common/pico_fix/rp2040_usb_device_enumeration/rp2040_usb_device_enumeration.c.obj
 .text.hw_enumeration_fix_force_ls_j_done
                0x0000000000000000       0x44 CMakeFiles/cube_robot.dir/home/wang/pico2/pico-sdk/src/rp2_common/pico_fix/rp2040_usb_device_enumeration/rp2040_usb_device_enumeration.c.obj
 .text.hw_enumeration_fix_force_ls_j
                0x0000000000000000      0x104 CMakeFiles/cube_robot.dir/home/wang/pico2/pico-sdk/src/rp2_common/pico_fix/rp2040_usb_device_enumeration/rp2040_usb_device_enumeration.c.obj
 .text.hw_enumeration_fix_wait_se0_callback
                0x0000000000000000       0x24 CMakeFiles/cube_robot.dir/home/wang/pico2/pico-sdk/src/rp2_common/pico_fix/rp2040_usb_device_enumeration/rp2040_usb_device_enumeration.c.obj
 .text.rp2040_usb_device_enumeration_fix
                0x0000000000000000       0x64 CMakeFiles/cube_robot.dir/home/wang/pico2/pico-sdk/src/rp2_common/pico_fix/rp2040_usb_device_enumeration/rp2040_usb_device_enumeration.c.obj
 .bss.gpio_ctrl_prev
                0x0000000000000000        0x4 CMakeFiles/cube_robot.dir/home/wang/pico2/pico-sdk/src/rp2_common/pico_fix/rp2040_usb_device_enumeration/rp2040_usb_device_enumeration.c.obj
 .bss.pad_ctrl_prev
                0x0000000000000000        0x4 CMakeFiles/cube_robot.dir/home/wang/pico2/pico-sdk/src/rp2_common/pico_fix/rp2040_usb_device_enumeration/rp2040_usb_device_enumeration.c.obj
 .comment       0x0000000000000000       0x4a CMakeFiles/cube_robot.dir/home/wang/pico2/pico-sdk/src/rp2_common/pico_fix/rp2040_usb_device_enumeration/rp2040_usb_device_enumeration.c.obj
 .ARM.attributes
                0x0000000000000000       0x2c CMakeFiles/cube_robot.dir/home/wang/pico2/pico-sdk/src/rp2_common/pico_fix/rp2040_usb_device_enumeration/rp2040_usb_device_enumeration.c.obj
 .text          0x0000000000000000        0x0 CMakeFiles/cube_robot.dir/home/wang/pico2/pico-sdk/src/rp2_common/pico_multicore/multicore.c.obj
 .data          0x0000000000000000        0x0 CMakeFiles/cube_robot.dir/home/wang/pico2/pico-sdk/src/rp2_common/pico_multicore/multicore.c.obj
 .bss           0x0000000000000000        0x0 CMakeFiles/cube_robot.dir/home/wang/pico2/pico-sdk/src/rp2_common/pico_multicore/multicore.c.obj
 .time_critical.multicore_lockout_handler
                0x0000000000000000       0x5c CMakeFiles/cube_robot.dir/home/wang/pico2/pico-sdk/src/rp2_common/pico_multicore/multicore.c.obj
 .text.multicore_lockout_handshake
                0x0000000000000000      0x104 CMakeFiles/cube_robot.dir/home/wang/pico2/pico-sdk/src/rp2_common/pico_multicore/multicore.c.obj
 .text.multicore_fifo_push_timeout_us
                0x0000000000000000       0x5c CMakeFiles/cube_robot.dir/home/wang/pico2/pico-sdk/src/rp2_common/pico_multicore/multicore.c.obj
 .text.multicore_fifo_pop_timeout_us
                0x0000000000000000       0x70 CMakeFiles/cube_robot.dir/home/wang/pico2/pico-sdk/src/rp2_common/pico_multicore/multicore.c.obj
 .text.multicore_reset_core1
                0x0000000000000000       0x24 CMakeFiles/cube_robot.dir/home/wang/pico2/pico-sdk/src/rp2_common/pico_multicore/multicore.c.obj
 .text.multicore_launch_core1_with_stack
                0x0000000000000000       0x34 CMakeFiles/cube_robot.dir/home/wang/pico2/pico-sdk/src/rp2_common/pico_multicore/multicore.c.obj
 .text.multicore_lockout_victim_init
                0x0000000000000000       0x4c CMakeFiles/cube_robot.dir/home/wang/pico2/pico-sdk/src/rp2_common/pico_multicore/multicore.c.obj
 .text.multicore_lockout_start_timeout_us
                0x0000000000000000       0x94 CMakeFiles/cube_robot.dir/home/wang/pico2/pico-sdk/src/rp2_common/pico_multicore/multicore.c.obj
 .text.multicore_lockout_start_blocking
                0x0000000000000000       0x6c CMakeFiles/cube_robot.dir/home/wang/pico2/pico-sdk/src/rp2_common/pico_multicore/multicore.c.obj
 .text.multicore_lockout_end_timeout_us
                0x0000000000000000       0x5c CMakeFiles/cube_robot.dir/home/wang/pico2/pico-sdk/src/rp2_common/pico_multicore/multicore.c.obj
 .text.multicore_lockout_end_blocking
                0x0000000000000000       0x50 CMakeFiles/cube_robot.dir/home/wang/pico2/pico-sdk/src/rp2_common/pico_multicore/multicore.c.obj
 .text.multicore_lockout_victim_is_initialized
                0x0000000000000000        0xc CMakeFiles/cube_robot.dir/home/wang/pico2/pico-sdk/src/rp2_common/pico_multicore/multicore.c.obj
 .bss.lockout_in_progress
                0x0000000000000000        0x1 CMakeFiles/cube_robot.dir/home/wang/pico2/pico-sdk/src/rp2_common/pico_multicore/multicore.c.obj
 .bss.lockout_mutex
                0x0000000000000000        0x8 CMakeFiles/cube_robot.dir/home/wang/pico2/pico-sdk/src/rp2_common/pico_multicore/multicore.c.obj
 .bss.lockout_victim_initialized
                0x0000000000000000        0x2 CMakeFiles/cube_robot.dir/home/wang/pico2/pico-sdk/src/rp2_common/pico_multicore/multicore.c.obj
 .text          0x0000000000000000        0x0 /tmp/ccOLAkFo.o
 .data          0x0000000000000000        0x0 /tmp/ccOLAkFo.o
 .bss           0x0000000000000000        0x0 /tmp/ccOLAkFo.o
 .data          0x0000000000000000        0x0 /opt/gcc-arm-none-eabi-10.3-2021.10/bin/../lib/gcc/arm-none-eabi/10.3.1/thumb/v6-m/nofp/libgcc.a(_dvmd_tls.o)
 .bss           0x0000000000000000        0x0 /opt/gcc-arm-none-eabi-10.3-2021.10/bin/../lib/gcc/arm-none-eabi/10.3.1/thumb/v6-m/nofp/libgcc.a(_dvmd_tls.o)
 .text          0x0000000000000000        0x0 /opt/gcc-arm-none-eabi-10.3-2021.10/bin/../lib/gcc/arm-none-eabi/10.3.1/../../../../arm-none-eabi/lib/thumb/v6-m/nofp/libc.a(lib_a-calloc.o)
 .data          0x0000000000000000        0x0 /opt/gcc-arm-none-eabi-10.3-2021.10/bin/../lib/gcc/arm-none-eabi/10.3.1/../../../../arm-none-eabi/lib/thumb/v6-m/nofp/libc.a(lib_a-calloc.o)
 .bss           0x0000000000000000        0x0 /opt/gcc-arm-none-eabi-10.3-2021.10/bin/../lib/gcc/arm-none-eabi/10.3.1/../../../../arm-none-eabi/lib/thumb/v6-m/nofp/libc.a(lib_a-calloc.o)
 .text.calloc   0x0000000000000000       0x18 /opt/gcc-arm-none-eabi-10.3-2021.10/bin/../lib/gcc/arm-none-eabi/10.3.1/../../../../arm-none-eabi/lib/thumb/v6-m/nofp/libc.a(lib_a-calloc.o)
 .debug_frame   0x0000000000000000       0x28 /opt/gcc-arm-none-eabi-10.3-2021.10/bin/../lib/gcc/arm-none-eabi/10.3.1/../../../../arm-none-eabi/lib/thumb/v6-m/nofp/libc.a(lib_a-calloc.o)
 .ARM.attributes
                0x0000000000000000       0x2c /opt/gcc-arm-none-eabi-10.3-2021.10/bin/../lib/gcc/arm-none-eabi/10.3.1/../../../../arm-none-eabi/lib/thumb/v6-m/nofp/libc.a(lib_a-calloc.o)
 .text          0x0000000000000000        0x0 /opt/gcc-arm-none-eabi-10.3-2021.10/bin/../lib/gcc/arm-none-eabi/10.3.1/../../../../arm-none-eabi/lib/thumb/v6-m/nofp/libc.a(lib_a-callocr.o)
 .data          0x0000000000000000        0x0 /opt/gcc-arm-none-eabi-10.3-2021.10/bin/../lib/gcc/arm-none-eabi/10.3.1/../../../../arm-none-eabi/lib/thumb/v6-m/nofp/libc.a(lib_a-callocr.o)
 .bss           0x0000000000000000        0x0 /opt/gcc-arm-none-eabi-10.3-2021.10/bin/../lib/gcc/arm-none-eabi/10.3.1/../../../../arm-none-eabi/lib/thumb/v6-m/nofp/libc.a(lib_a-callocr.o)
 .text          0x0000000000000000        0x0 /opt/gcc-arm-none-eabi-10.3-2021.10/bin/../lib/gcc/arm-none-eabi/10.3.1/../../../../arm-none-eabi/lib/thumb/v6-m/nofp/libc.a(lib_a-errno.o)
 .data          0x0000000000000000        0x0 /opt/gcc-arm-none-eabi-10.3-2021.10/bin/../lib/gcc/arm-none-eabi/10.3.1/../../../../arm-none-eabi/lib/thumb/v6-m/nofp/libc.a(lib_a-errno.o)
 .bss           0x0000000000000000        0x0 /opt/gcc-arm-none-eabi-10.3-2021.10/bin/../lib/gcc/arm-none-eabi/10.3.1/../../../../arm-none-eabi/lib/thumb/v6-m/nofp/libc.a(lib_a-errno.o)
 .text          0x0000000000000000        0x0 /opt/gcc-arm-none-eabi-10.3-2021.10/bin/../lib/gcc/arm-none-eabi/10.3.1/../../../../arm-none-eabi/lib/thumb/v6-m/nofp/libc.a(lib_a-impure.o)
 .data          0x0000000000000000        0x0 /opt/gcc-arm-none-eabi-10.3-2021.10/bin/../lib/gcc/arm-none-eabi/10.3.1/../../../../arm-none-eabi/lib/thumb/v6-m/nofp/libc.a(lib_a-impure.o)
 .bss           0x0000000000000000        0x0 /opt/gcc-arm-none-eabi-10.3-2021.10/bin/../lib/gcc/arm-none-eabi/10.3.1/../../../../arm-none-eabi/lib/thumb/v6-m/nofp/libc.a(lib_a-impure.o)
 .rodata._global_impure_ptr
                0x0000000000000000        0x4 /opt/gcc-arm-none-eabi-10.3-2021.10/bin/../lib/gcc/arm-none-eabi/10.3.1/../../../../arm-none-eabi/lib/thumb/v6-m/nofp/libc.a(lib_a-impure.o)
 .text          0x0000000000000000        0x0 /opt/gcc-arm-none-eabi-10.3-2021.10/bin/../lib/gcc/arm-none-eabi/10.3.1/../../../../arm-none-eabi/lib/thumb/v6-m/nofp/libc.a(lib_a-init.o)
 .data          0x0000000000000000        0x0 /opt/gcc-arm-none-eabi-10.3-2021.10/bin/../lib/gcc/arm-none-eabi/10.3.1/../../../../arm-none-eabi/lib/thumb/v6-m/nofp/libc.a(lib_a-init.o)
 .bss           0x0000000000000000        0x0 /opt/gcc-arm-none-eabi-10.3-2021.10/bin/../lib/gcc/arm-none-eabi/10.3.1/../../../../arm-none-eabi/lib/thumb/v6-m/nofp/libc.a(lib_a-init.o)
 .text.__libc_init_array
                0x0000000000000000       0x44 /opt/gcc-arm-none-eabi-10.3-2021.10/bin/../lib/gcc/arm-none-eabi/10.3.1/../../../../arm-none-eabi/lib/thumb/v6-m/nofp/libc.a(lib_a-init.o)
 .debug_frame   0x0000000000000000       0x2c /opt/gcc-arm-none-eabi-10.3-2021.10/bin/../lib/gcc/arm-none-eabi/10.3.1/../../../../arm-none-eabi/lib/thumb/v6-m/nofp/libc.a(lib_a-init.o)
 .ARM.attributes
                0x0000000000000000       0x2c /opt/gcc-arm-none-eabi-10.3-2021.10/bin/../lib/gcc/arm-none-eabi/10.3.1/../../../../arm-none-eabi/lib/thumb/v6-m/nofp/libc.a(lib_a-init.o)
 .text          0x0000000000000000        0x0 /opt/gcc-arm-none-eabi-10.3-2021.10/bin/../lib/gcc/arm-none-eabi/10.3.1/../../../../arm-none-eabi/lib/thumb/v6-m/nofp/libc.a(lib_a-malloc.o)
 .data          0x0000000000000000        0x0 /opt/gcc-arm-none-eabi-10.3-2021.10/bin/../lib/gcc/arm-none-eabi/10.3.1/../../../../arm-none-eabi/lib/thumb/v6-m/nofp/libc.a(lib_a-malloc.o)
 .bss           0x0000000000000000        0x0 /opt/gcc-arm-none-eabi-10.3-2021.10/bin/../lib/gcc/arm-none-eabi/10.3.1/../../../../arm-none-eabi/lib/thumb/v6-m/nofp/libc.a(lib_a-malloc.o)
 .text.malloc   0x0000000000000000       0x14 /opt/gcc-arm-none-eabi-10.3-2021.10/bin/../lib/gcc/arm-none-eabi/10.3.1/../../../../arm-none-eabi/lib/thumb/v6-m/nofp/libc.a(lib_a-malloc.o)
 .text.free     0x0000000000000000       0x14 /opt/gcc-arm-none-eabi-10.3-2021.10/bin/../lib/gcc/arm-none-eabi/10.3.1/../../../../arm-none-eabi/lib/thumb/v6-m/nofp/libc.a(lib_a-malloc.o)
 .debug_frame   0x0000000000000000       0x40 /opt/gcc-arm-none-eabi-10.3-2021.10/bin/../lib/gcc/arm-none-eabi/10.3.1/../../../../arm-none-eabi/lib/thumb/v6-m/nofp/libc.a(lib_a-malloc.o)
 .ARM.attributes
                0x0000000000000000       0x2c /opt/gcc-arm-none-eabi-10.3-2021.10/bin/../lib/gcc/arm-none-eabi/10.3.1/../../../../arm-none-eabi/lib/thumb/v6-m/nofp/libc.a(lib_a-malloc.o)
 .text          0x0000000000000000        0x0 /opt/gcc-arm-none-eabi-10.3-2021.10/bin/../lib/gcc/arm-none-eabi/10.3.1/../../../../arm-none-eabi/lib/thumb/v6-m/nofp/libc.a(lib_a-mallocr.o)
 .data          0x0000000000000000        0x0 /opt/gcc-arm-none-eabi-10.3-2021.10/bin/../lib/gcc/arm-none-eabi/10.3.1/../../../../arm-none-eabi/lib/thumb/v6-m/nofp/libc.a(lib_a-mallocr.o)
 .bss           0x0000000000000000        0x0 /opt/gcc-arm-none-eabi-10.3-2021.10/bin/../lib/gcc/arm-none-eabi/10.3.1/../../../../arm-none-eabi/lib/thumb/v6-m/nofp/libc.a(lib_a-mallocr.o)
 .text          0x0000000000000000        0x0 /opt/gcc-arm-none-eabi-10.3-2021.10/bin/../lib/gcc/arm-none-eabi/10.3.1/../../../../arm-none-eabi/lib/thumb/v6-m/nofp/libc.a(lib_a-mlock.o)
 .data          0x0000000000000000        0x0 /opt/gcc-arm-none-eabi-10.3-2021.10/bin/../lib/gcc/arm-none-eabi/10.3.1/../../../../arm-none-eabi/lib/thumb/v6-m/nofp/libc.a(lib_a-mlock.o)
 .bss           0x0000000000000000        0x0 /opt/gcc-arm-none-eabi-10.3-2021.10/bin/../lib/gcc/arm-none-eabi/10.3.1/../../../../arm-none-eabi/lib/thumb/v6-m/nofp/libc.a(lib_a-mlock.o)
 .text          0x0000000000000000        0x0 /opt/gcc-arm-none-eabi-10.3-2021.10/bin/../lib/gcc/arm-none-eabi/10.3.1/../../../../arm-none-eabi/lib/thumb/v6-m/nofp/libc.a(lib_a-realloc.o)
 .data          0x0000000000000000        0x0 /opt/gcc-arm-none-eabi-10.3-2021.10/bin/../lib/gcc/arm-none-eabi/10.3.1/../../../../arm-none-eabi/lib/thumb/v6-m/nofp/libc.a(lib_a-realloc.o)
 .bss           0x0000000000000000        0x0 /opt/gcc-arm-none-eabi-10.3-2021.10/bin/../lib/gcc/arm-none-eabi/10.3.1/../../../../arm-none-eabi/lib/thumb/v6-m/nofp/libc.a(lib_a-realloc.o)
 .text.realloc  0x0000000000000000       0x18 /opt/gcc-arm-none-eabi-10.3-2021.10/bin/../lib/gcc/arm-none-eabi/10.3.1/../../../../arm-none-eabi/lib/thumb/v6-m/nofp/libc.a(lib_a-realloc.o)
 .debug_frame   0x0000000000000000       0x28 /opt/gcc-arm-none-eabi-10.3-2021.10/bin/../lib/gcc/arm-none-eabi/10.3.1/../../../../arm-none-eabi/lib/thumb/v6-m/nofp/libc.a(lib_a-realloc.o)
 .ARM.attributes
                0x0000000000000000       0x2c /opt/gcc-arm-none-eabi-10.3-2021.10/bin/../lib/gcc/arm-none-eabi/10.3.1/../../../../arm-none-eabi/lib/thumb/v6-m/nofp/libc.a(lib_a-realloc.o)
 .text          0x0000000000000000        0x0 /opt/gcc-arm-none-eabi-10.3-2021.10/bin/../lib/gcc/arm-none-eabi/10.3.1/../../../../arm-none-eabi/lib/thumb/v6-m/nofp/libc.a(lib_a-reallocr.o)
 .data          0x0000000000000000        0x0 /opt/gcc-arm-none-eabi-10.3-2021.10/bin/../lib/gcc/arm-none-eabi/10.3.1/../../../../arm-none-eabi/lib/thumb/v6-m/nofp/libc.a(lib_a-reallocr.o)
 .bss           0x0000000000000000        0x0 /opt/gcc-arm-none-eabi-10.3-2021.10/bin/../lib/gcc/arm-none-eabi/10.3.1/../../../../arm-none-eabi/lib/thumb/v6-m/nofp/libc.a(lib_a-reallocr.o)
 .text          0x0000000000000000        0x0 /opt/gcc-arm-none-eabi-10.3-2021.10/bin/../lib/gcc/arm-none-eabi/10.3.1/../../../../arm-none-eabi/lib/thumb/v6-m/nofp/libc.a(lib_a-sbrkr.o)
 .data          0x0000000000000000        0x0 /opt/gcc-arm-none-eabi-10.3-2021.10/bin/../lib/gcc/arm-none-eabi/10.3.1/../../../../arm-none-eabi/lib/thumb/v6-m/nofp/libc.a(lib_a-sbrkr.o)
 .bss           0x0000000000000000        0x0 /opt/gcc-arm-none-eabi-10.3-2021.10/bin/../lib/gcc/arm-none-eabi/10.3.1/../../../../arm-none-eabi/lib/thumb/v6-m/nofp/libc.a(lib_a-sbrkr.o)
 .text          0x0000000000000000       0x88 /opt/gcc-arm-none-eabi-10.3-2021.10/bin/../lib/gcc/arm-none-eabi/10.3.1/../../../../arm-none-eabi/lib/thumb/v6-m/nofp/libc.a(lib_a-strcmp.o)
 .data          0x0000000000000000        0x0 /opt/gcc-arm-none-eabi-10.3-2021.10/bin/../lib/gcc/arm-none-eabi/10.3.1/../../../../arm-none-eabi/lib/thumb/v6-m/nofp/libc.a(lib_a-strcmp.o)
 .bss           0x0000000000000000        0x0 /opt/gcc-arm-none-eabi-10.3-2021.10/bin/../lib/gcc/arm-none-eabi/10.3.1/../../../../arm-none-eabi/lib/thumb/v6-m/nofp/libc.a(lib_a-strcmp.o)
 .debug_frame   0x0000000000000000       0x20 /opt/gcc-arm-none-eabi-10.3-2021.10/bin/../lib/gcc/arm-none-eabi/10.3.1/../../../../arm-none-eabi/lib/thumb/v6-m/nofp/libc.a(lib_a-strcmp.o)
 .ARM.attributes
                0x0000000000000000       0x1b /opt/gcc-arm-none-eabi-10.3-2021.10/bin/../lib/gcc/arm-none-eabi/10.3.1/../../../../arm-none-eabi/lib/thumb/v6-m/nofp/libc.a(lib_a-strcmp.o)
 .text          0x0000000000000000        0x0 /opt/gcc-arm-none-eabi-10.3-2021.10/bin/../lib/gcc/arm-none-eabi/10.3.1/../../../../arm-none-eabi/lib/thumb/v6-m/nofp/libc.a(lib_a-strlen-stub.o)
 .data          0x0000000000000000        0x0 /opt/gcc-arm-none-eabi-10.3-2021.10/bin/../lib/gcc/arm-none-eabi/10.3.1/../../../../arm-none-eabi/lib/thumb/v6-m/nofp/libc.a(lib_a-strlen-stub.o)
 .bss           0x0000000000000000        0x0 /opt/gcc-arm-none-eabi-10.3-2021.10/bin/../lib/gcc/arm-none-eabi/10.3.1/../../../../arm-none-eabi/lib/thumb/v6-m/nofp/libc.a(lib_a-strlen-stub.o)
 .text          0x0000000000000000        0x0 /opt/gcc-arm-none-eabi-10.3-2021.10/bin/../lib/gcc/arm-none-eabi/10.3.1/../../../../arm-none-eabi/lib/thumb/v6-m/nofp/libc.a(lib_a-vsprintf.o)
 .data          0x0000000000000000        0x0 /opt/gcc-arm-none-eabi-10.3-2021.10/bin/../lib/gcc/arm-none-eabi/10.3.1/../../../../arm-none-eabi/lib/thumb/v6-m/nofp/libc.a(lib_a-vsprintf.o)
 .bss           0x0000000000000000        0x0 /opt/gcc-arm-none-eabi-10.3-2021.10/bin/../lib/gcc/arm-none-eabi/10.3.1/../../../../arm-none-eabi/lib/thumb/v6-m/nofp/libc.a(lib_a-vsprintf.o)
 .text._vsprintf_r
                0x0000000000000000       0x2c /opt/gcc-arm-none-eabi-10.3-2021.10/bin/../lib/gcc/arm-none-eabi/10.3.1/../../../../arm-none-eabi/lib/thumb/v6-m/nofp/libc.a(lib_a-vsprintf.o)
 .text          0x0000000000000000        0x0 /opt/gcc-arm-none-eabi-10.3-2021.10/bin/../lib/gcc/arm-none-eabi/10.3.1/../../../../arm-none-eabi/lib/thumb/v6-m/nofp/libc.a(lib_a-freer.o)
 .data          0x0000000000000000        0x0 /opt/gcc-arm-none-eabi-10.3-2021.10/bin/../lib/gcc/arm-none-eabi/10.3.1/../../../../arm-none-eabi/lib/thumb/v6-m/nofp/libc.a(lib_a-freer.o)
 .bss           0x0000000000000000        0x0 /opt/gcc-arm-none-eabi-10.3-2021.10/bin/../lib/gcc/arm-none-eabi/10.3.1/../../../../arm-none-eabi/lib/thumb/v6-m/nofp/libc.a(lib_a-freer.o)
 .text          0x0000000000000000        0x0 /opt/gcc-arm-none-eabi-10.3-2021.10/bin/../lib/gcc/arm-none-eabi/10.3.1/../../../../arm-none-eabi/lib/thumb/v6-m/nofp/libc.a(lib_a-lock.o)
 .data          0x0000000000000000        0x0 /opt/gcc-arm-none-eabi-10.3-2021.10/bin/../lib/gcc/arm-none-eabi/10.3.1/../../../../arm-none-eabi/lib/thumb/v6-m/nofp/libc.a(lib_a-lock.o)
 .bss           0x0000000000000000        0x0 /opt/gcc-arm-none-eabi-10.3-2021.10/bin/../lib/gcc/arm-none-eabi/10.3.1/../../../../arm-none-eabi/lib/thumb/v6-m/nofp/libc.a(lib_a-lock.o)
 .text.__retarget_lock_init
                0x0000000000000000        0x4 /opt/gcc-arm-none-eabi-10.3-2021.10/bin/../lib/gcc/arm-none-eabi/10.3.1/../../../../arm-none-eabi/lib/thumb/v6-m/nofp/libc.a(lib_a-lock.o)
 .text.__retarget_lock_init_recursive
                0x0000000000000000        0x4 /opt/gcc-arm-none-eabi-10.3-2021.10/bin/../lib/gcc/arm-none-eabi/10.3.1/../../../../arm-none-eabi/lib/thumb/v6-m/nofp/libc.a(lib_a-lock.o)
 .text.__retarget_lock_close
                0x0000000000000000        0x4 /opt/gcc-arm-none-eabi-10.3-2021.10/bin/../lib/gcc/arm-none-eabi/10.3.1/../../../../arm-none-eabi/lib/thumb/v6-m/nofp/libc.a(lib_a-lock.o)
 .text.__retarget_lock_close_recursive
                0x0000000000000000        0x4 /opt/gcc-arm-none-eabi-10.3-2021.10/bin/../lib/gcc/arm-none-eabi/10.3.1/../../../../arm-none-eabi/lib/thumb/v6-m/nofp/libc.a(lib_a-lock.o)
 .text.__retarget_lock_acquire
                0x0000000000000000        0x4 /opt/gcc-arm-none-eabi-10.3-2021.10/bin/../lib/gcc/arm-none-eabi/10.3.1/../../../../arm-none-eabi/lib/thumb/v6-m/nofp/libc.a(lib_a-lock.o)
 .text.__retarget_lock_try_acquire
                0x0000000000000000        0x4 /opt/gcc-arm-none-eabi-10.3-2021.10/bin/../lib/gcc/arm-none-eabi/10.3.1/../../../../arm-none-eabi/lib/thumb/v6-m/nofp/libc.a(lib_a-lock.o)
 .text.__retarget_lock_try_acquire_recursive
                0x0000000000000000        0x4 /opt/gcc-arm-none-eabi-10.3-2021.10/bin/../lib/gcc/arm-none-eabi/10.3.1/../../../../arm-none-eabi/lib/thumb/v6-m/nofp/libc.a(lib_a-lock.o)
 .text.__retarget_lock_release
                0x0000000000000000        0x4 /opt/gcc-arm-none-eabi-10.3-2021.10/bin/../lib/gcc/arm-none-eabi/10.3.1/../../../../arm-none-eabi/lib/thumb/v6-m/nofp/libc.a(lib_a-lock.o)
 .bss.__lock___arc4random_mutex
                0x0000000000000000        0x1 /opt/gcc-arm-none-eabi-10.3-2021.10/bin/../lib/gcc/arm-none-eabi/10.3.1/../../../../arm-none-eabi/lib/thumb/v6-m/nofp/libc.a(lib_a-lock.o)
 .bss.__lock___at_quick_exit_mutex
                0x0000000000000000        0x1 /opt/gcc-arm-none-eabi-10.3-2021.10/bin/../lib/gcc/arm-none-eabi/10.3.1/../../../../arm-none-eabi/lib/thumb/v6-m/nofp/libc.a(lib_a-lock.o)
 .bss.__lock___atexit_recursive_mutex
                0x0000000000000000        0x1 /opt/gcc-arm-none-eabi-10.3-2021.10/bin/../lib/gcc/arm-none-eabi/10.3.1/../../../../arm-none-eabi/lib/thumb/v6-m/nofp/libc.a(lib_a-lock.o)
 .bss.__lock___dd_hash_mutex
                0x0000000000000000        0x1 /opt/gcc-arm-none-eabi-10.3-2021.10/bin/../lib/gcc/arm-none-eabi/10.3.1/../../../../arm-none-eabi/lib/thumb/v6-m/nofp/libc.a(lib_a-lock.o)
 .bss.__lock___env_recursive_mutex
                0x0000000000000000        0x1 /opt/gcc-arm-none-eabi-10.3-2021.10/bin/../lib/gcc/arm-none-eabi/10.3.1/../../../../arm-none-eabi/lib/thumb/v6-m/nofp/libc.a(lib_a-lock.o)
 .bss.__lock___sfp_recursive_mutex
                0x0000000000000000        0x1 /opt/gcc-arm-none-eabi-10.3-2021.10/bin/../lib/gcc/arm-none-eabi/10.3.1/../../../../arm-none-eabi/lib/thumb/v6-m/nofp/libc.a(lib_a-lock.o)
 .bss.__lock___sinit_recursive_mutex
                0x0000000000000000        0x1 /opt/gcc-arm-none-eabi-10.3-2021.10/bin/../lib/gcc/arm-none-eabi/10.3.1/../../../../arm-none-eabi/lib/thumb/v6-m/nofp/libc.a(lib_a-lock.o)
 .bss.__lock___tz_mutex
                0x0000000000000000        0x1 /opt/gcc-arm-none-eabi-10.3-2021.10/bin/../lib/gcc/arm-none-eabi/10.3.1/../../../../arm-none-eabi/lib/thumb/v6-m/nofp/libc.a(lib_a-lock.o)
 .text          0x0000000000000000        0x0 /opt/gcc-arm-none-eabi-10.3-2021.10/bin/../lib/gcc/arm-none-eabi/10.3.1/../../../../arm-none-eabi/lib/thumb/v6-m/nofp/libc.a(lib_a-memmove.o)
 .data          0x0000000000000000        0x0 /opt/gcc-arm-none-eabi-10.3-2021.10/bin/../lib/gcc/arm-none-eabi/10.3.1/../../../../arm-none-eabi/lib/thumb/v6-m/nofp/libc.a(lib_a-memmove.o)
 .bss           0x0000000000000000        0x0 /opt/gcc-arm-none-eabi-10.3-2021.10/bin/../lib/gcc/arm-none-eabi/10.3.1/../../../../arm-none-eabi/lib/thumb/v6-m/nofp/libc.a(lib_a-memmove.o)
 .text          0x0000000000000000        0x0 /opt/gcc-arm-none-eabi-10.3-2021.10/bin/../lib/gcc/arm-none-eabi/10.3.1/../../../../arm-none-eabi/lib/thumb/v6-m/nofp/libc.a(lib_a-reent.o)
 .data          0x0000000000000000        0x0 /opt/gcc-arm-none-eabi-10.3-2021.10/bin/../lib/gcc/arm-none-eabi/10.3.1/../../../../arm-none-eabi/lib/thumb/v6-m/nofp/libc.a(lib_a-reent.o)
 .bss           0x0000000000000000        0x0 /opt/gcc-arm-none-eabi-10.3-2021.10/bin/../lib/gcc/arm-none-eabi/10.3.1/../../../../arm-none-eabi/lib/thumb/v6-m/nofp/libc.a(lib_a-reent.o)
 .text.cleanup_glue
                0x0000000000000000       0x50 /opt/gcc-arm-none-eabi-10.3-2021.10/bin/../lib/gcc/arm-none-eabi/10.3.1/../../../../arm-none-eabi/lib/thumb/v6-m/nofp/libc.a(lib_a-reent.o)
 .text._reclaim_reent
                0x0000000000000000       0xa0 /opt/gcc-arm-none-eabi-10.3-2021.10/bin/../lib/gcc/arm-none-eabi/10.3.1/../../../../arm-none-eabi/lib/thumb/v6-m/nofp/libc.a(lib_a-reent.o)
 .text          0x0000000000000000        0x0 /opt/gcc-arm-none-eabi-10.3-2021.10/bin/../lib/gcc/arm-none-eabi/10.3.1/../../../../arm-none-eabi/lib/thumb/v6-m/nofp/libc.a(lib_a-svfprintf.o)
 .data          0x0000000000000000        0x0 /opt/gcc-arm-none-eabi-10.3-2021.10/bin/../lib/gcc/arm-none-eabi/10.3.1/../../../../arm-none-eabi/lib/thumb/v6-m/nofp/libc.a(lib_a-svfprintf.o)
 .bss           0x0000000000000000        0x0 /opt/gcc-arm-none-eabi-10.3-2021.10/bin/../lib/gcc/arm-none-eabi/10.3.1/../../../../arm-none-eabi/lib/thumb/v6-m/nofp/libc.a(lib_a-svfprintf.o)
 .text          0x0000000000000000        0x0 /opt/gcc-arm-none-eabi-10.3-2021.10/bin/../lib/gcc/arm-none-eabi/10.3.1/../../../../arm-none-eabi/lib/thumb/v6-m/nofp/libc.a(lib_a-dtoa.o)
 .data          0x0000000000000000        0x0 /opt/gcc-arm-none-eabi-10.3-2021.10/bin/../lib/gcc/arm-none-eabi/10.3.1/../../../../arm-none-eabi/lib/thumb/v6-m/nofp/libc.a(lib_a-dtoa.o)
 .bss           0x0000000000000000        0x0 /opt/gcc-arm-none-eabi-10.3-2021.10/bin/../lib/gcc/arm-none-eabi/10.3.1/../../../../arm-none-eabi/lib/thumb/v6-m/nofp/libc.a(lib_a-dtoa.o)
 .text          0x0000000000000000        0x0 /opt/gcc-arm-none-eabi-10.3-2021.10/bin/../lib/gcc/arm-none-eabi/10.3.1/../../../../arm-none-eabi/lib/thumb/v6-m/nofp/libc.a(lib_a-localeconv.o)
 .data          0x0000000000000000        0x0 /opt/gcc-arm-none-eabi-10.3-2021.10/bin/../lib/gcc/arm-none-eabi/10.3.1/../../../../arm-none-eabi/lib/thumb/v6-m/nofp/libc.a(lib_a-localeconv.o)
 .bss           0x0000000000000000        0x0 /opt/gcc-arm-none-eabi-10.3-2021.10/bin/../lib/gcc/arm-none-eabi/10.3.1/../../../../arm-none-eabi/lib/thumb/v6-m/nofp/libc.a(lib_a-localeconv.o)
 .text.__localeconv_l
                0x0000000000000000        0x4 /opt/gcc-arm-none-eabi-10.3-2021.10/bin/../lib/gcc/arm-none-eabi/10.3.1/../../../../arm-none-eabi/lib/thumb/v6-m/nofp/libc.a(lib_a-localeconv.o)
 .text.localeconv
                0x0000000000000000        0x8 /opt/gcc-arm-none-eabi-10.3-2021.10/bin/../lib/gcc/arm-none-eabi/10.3.1/../../../../arm-none-eabi/lib/thumb/v6-m/nofp/libc.a(lib_a-localeconv.o)
 .text          0x0000000000000000        0x0 /opt/gcc-arm-none-eabi-10.3-2021.10/bin/../lib/gcc/arm-none-eabi/10.3.1/../../../../arm-none-eabi/lib/thumb/v6-m/nofp/libc.a(lib_a-memchr-stub.o)
 .data          0x0000000000000000        0x0 /opt/gcc-arm-none-eabi-10.3-2021.10/bin/../lib/gcc/arm-none-eabi/10.3.1/../../../../arm-none-eabi/lib/thumb/v6-m/nofp/libc.a(lib_a-memchr-stub.o)
 .bss           0x0000000000000000        0x0 /opt/gcc-arm-none-eabi-10.3-2021.10/bin/../lib/gcc/arm-none-eabi/10.3.1/../../../../arm-none-eabi/lib/thumb/v6-m/nofp/libc.a(lib_a-memchr-stub.o)
 .text          0x0000000000000000        0x0 /opt/gcc-arm-none-eabi-10.3-2021.10/bin/../lib/gcc/arm-none-eabi/10.3.1/../../../../arm-none-eabi/lib/thumb/v6-m/nofp/libc.a(lib_a-mprec.o)
 .data          0x0000000000000000        0x0 /opt/gcc-arm-none-eabi-10.3-2021.10/bin/../lib/gcc/arm-none-eabi/10.3.1/../../../../arm-none-eabi/lib/thumb/v6-m/nofp/libc.a(lib_a-mprec.o)
 .bss           0x0000000000000000        0x0 /opt/gcc-arm-none-eabi-10.3-2021.10/bin/../lib/gcc/arm-none-eabi/10.3.1/../../../../arm-none-eabi/lib/thumb/v6-m/nofp/libc.a(lib_a-mprec.o)
 .text.__s2b    0x0000000000000000       0xb0 /opt/gcc-arm-none-eabi-10.3-2021.10/bin/../lib/gcc/arm-none-eabi/10.3.1/../../../../arm-none-eabi/lib/thumb/v6-m/nofp/libc.a(lib_a-mprec.o)
 .text.__ulp    0x0000000000000000       0x48 /opt/gcc-arm-none-eabi-10.3-2021.10/bin/../lib/gcc/arm-none-eabi/10.3.1/../../../../arm-none-eabi/lib/thumb/v6-m/nofp/libc.a(lib_a-mprec.o)
 .text.__b2d    0x0000000000000000       0xc8 /opt/gcc-arm-none-eabi-10.3-2021.10/bin/../lib/gcc/arm-none-eabi/10.3.1/../../../../arm-none-eabi/lib/thumb/v6-m/nofp/libc.a(lib_a-mprec.o)
 .text.__ratio  0x0000000000000000       0x68 /opt/gcc-arm-none-eabi-10.3-2021.10/bin/../lib/gcc/arm-none-eabi/10.3.1/../../../../arm-none-eabi/lib/thumb/v6-m/nofp/libc.a(lib_a-mprec.o)
 .text._mprec_log10
                0x0000000000000000       0x34 /opt/gcc-arm-none-eabi-10.3-2021.10/bin/../lib/gcc/arm-none-eabi/10.3.1/../../../../arm-none-eabi/lib/thumb/v6-m/nofp/libc.a(lib_a-mprec.o)
 .text.__copybits
                0x0000000000000000       0x40 /opt/gcc-arm-none-eabi-10.3-2021.10/bin/../lib/gcc/arm-none-eabi/10.3.1/../../../../arm-none-eabi/lib/thumb/v6-m/nofp/libc.a(lib_a-mprec.o)
 .text.__any_on
                0x0000000000000000       0x50 /opt/gcc-arm-none-eabi-10.3-2021.10/bin/../lib/gcc/arm-none-eabi/10.3.1/../../../../arm-none-eabi/lib/thumb/v6-m/nofp/libc.a(lib_a-mprec.o)
 .rodata.__mprec_tinytens
                0x0000000000000000       0x28 /opt/gcc-arm-none-eabi-10.3-2021.10/bin/../lib/gcc/arm-none-eabi/10.3.1/../../../../arm-none-eabi/lib/thumb/v6-m/nofp/libc.a(lib_a-mprec.o)
 .text          0x0000000000000000        0x0 /opt/gcc-arm-none-eabi-10.3-2021.10/bin/../lib/gcc/arm-none-eabi/10.3.1/../../../../arm-none-eabi/lib/thumb/v6-m/nofp/libc.a(lib_a-s_frexp.o)
 .data          0x0000000000000000        0x0 /opt/gcc-arm-none-eabi-10.3-2021.10/bin/../lib/gcc/arm-none-eabi/10.3.1/../../../../arm-none-eabi/lib/thumb/v6-m/nofp/libc.a(lib_a-s_frexp.o)
 .bss           0x0000000000000000        0x0 /opt/gcc-arm-none-eabi-10.3-2021.10/bin/../lib/gcc/arm-none-eabi/10.3.1/../../../../arm-none-eabi/lib/thumb/v6-m/nofp/libc.a(lib_a-s_frexp.o)
 .text          0x0000000000000000        0x0 /opt/gcc-arm-none-eabi-10.3-2021.10/bin/../lib/gcc/arm-none-eabi/10.3.1/../../../../arm-none-eabi/lib/thumb/v6-m/nofp/libc.a(lib_a-strncpy.o)
 .data          0x0000000000000000        0x0 /opt/gcc-arm-none-eabi-10.3-2021.10/bin/../lib/gcc/arm-none-eabi/10.3.1/../../../../arm-none-eabi/lib/thumb/v6-m/nofp/libc.a(lib_a-strncpy.o)
 .bss           0x0000000000000000        0x0 /opt/gcc-arm-none-eabi-10.3-2021.10/bin/../lib/gcc/arm-none-eabi/10.3.1/../../../../arm-none-eabi/lib/thumb/v6-m/nofp/libc.a(lib_a-strncpy.o)
 .text          0x0000000000000000        0x0 /opt/gcc-arm-none-eabi-10.3-2021.10/bin/../lib/gcc/arm-none-eabi/10.3.1/../../../../arm-none-eabi/lib/thumb/v6-m/nofp/libc.a(lib_a-svfiprintf.o)
 .data          0x0000000000000000        0x0 /opt/gcc-arm-none-eabi-10.3-2021.10/bin/../lib/gcc/arm-none-eabi/10.3.1/../../../../arm-none-eabi/lib/thumb/v6-m/nofp/libc.a(lib_a-svfiprintf.o)
 .bss           0x0000000000000000        0x0 /opt/gcc-arm-none-eabi-10.3-2021.10/bin/../lib/gcc/arm-none-eabi/10.3.1/../../../../arm-none-eabi/lib/thumb/v6-m/nofp/libc.a(lib_a-svfiprintf.o)
 .rodata._svfiprintf_r.str1.4
                0x0000000000000000       0x2f /opt/gcc-arm-none-eabi-10.3-2021.10/bin/../lib/gcc/arm-none-eabi/10.3.1/../../../../arm-none-eabi/lib/thumb/v6-m/nofp/libc.a(lib_a-svfiprintf.o)
 .text._svfiprintf_r
                0x0000000000000000      0xb78 /opt/gcc-arm-none-eabi-10.3-2021.10/bin/../lib/gcc/arm-none-eabi/10.3.1/../../../../arm-none-eabi/lib/thumb/v6-m/nofp/libc.a(lib_a-svfiprintf.o)
 .rodata._svfiprintf_r
                0x0000000000000000      0x16c /opt/gcc-arm-none-eabi-10.3-2021.10/bin/../lib/gcc/arm-none-eabi/10.3.1/../../../../arm-none-eabi/lib/thumb/v6-m/nofp/libc.a(lib_a-svfiprintf.o)
 .rodata.blanks.1
                0x0000000000000000       0x10 /opt/gcc-arm-none-eabi-10.3-2021.10/bin/../lib/gcc/arm-none-eabi/10.3.1/../../../../arm-none-eabi/lib/thumb/v6-m/nofp/libc.a(lib_a-svfiprintf.o)
 .rodata.zeroes.0
                0x0000000000000000       0x10 /opt/gcc-arm-none-eabi-10.3-2021.10/bin/../lib/gcc/arm-none-eabi/10.3.1/../../../../arm-none-eabi/lib/thumb/v6-m/nofp/libc.a(lib_a-svfiprintf.o)
 .text          0x0000000000000000        0x0 /opt/gcc-arm-none-eabi-10.3-2021.10/bin/../lib/gcc/arm-none-eabi/10.3.1/../../../../arm-none-eabi/lib/thumb/v6-m/nofp/libc.a(lib_a-locale.o)
 .data          0x0000000000000000        0x0 /opt/gcc-arm-none-eabi-10.3-2021.10/bin/../lib/gcc/arm-none-eabi/10.3.1/../../../../arm-none-eabi/lib/thumb/v6-m/nofp/libc.a(lib_a-locale.o)
 .bss           0x0000000000000000        0x0 /opt/gcc-arm-none-eabi-10.3-2021.10/bin/../lib/gcc/arm-none-eabi/10.3.1/../../../../arm-none-eabi/lib/thumb/v6-m/nofp/libc.a(lib_a-locale.o)
 .text._setlocale_r
                0x0000000000000000       0x44 /opt/gcc-arm-none-eabi-10.3-2021.10/bin/../lib/gcc/arm-none-eabi/10.3.1/../../../../arm-none-eabi/lib/thumb/v6-m/nofp/libc.a(lib_a-locale.o)
 .text.__locale_mb_cur_max
                0x0000000000000000       0x10 /opt/gcc-arm-none-eabi-10.3-2021.10/bin/../lib/gcc/arm-none-eabi/10.3.1/../../../../arm-none-eabi/lib/thumb/v6-m/nofp/libc.a(lib_a-locale.o)
 .text.setlocale
                0x0000000000000000       0x44 /opt/gcc-arm-none-eabi-10.3-2021.10/bin/../lib/gcc/arm-none-eabi/10.3.1/../../../../arm-none-eabi/lib/thumb/v6-m/nofp/libc.a(lib_a-locale.o)
 .bss._PathLocale
                0x0000000000000000        0x4 /opt/gcc-arm-none-eabi-10.3-2021.10/bin/../lib/gcc/arm-none-eabi/10.3.1/../../../../arm-none-eabi/lib/thumb/v6-m/nofp/libc.a(lib_a-locale.o)
 .text          0x0000000000000000        0x0 /opt/gcc-arm-none-eabi-10.3-2021.10/bin/../lib/gcc/arm-none-eabi/10.3.1/../../../../arm-none-eabi/lib/thumb/v6-m/nofp/libc.a(lib_a-mbtowc_r.o)
 .data          0x0000000000000000        0x0 /opt/gcc-arm-none-eabi-10.3-2021.10/bin/../lib/gcc/arm-none-eabi/10.3.1/../../../../arm-none-eabi/lib/thumb/v6-m/nofp/libc.a(lib_a-mbtowc_r.o)
 .bss           0x0000000000000000        0x0 /opt/gcc-arm-none-eabi-10.3-2021.10/bin/../lib/gcc/arm-none-eabi/10.3.1/../../../../arm-none-eabi/lib/thumb/v6-m/nofp/libc.a(lib_a-mbtowc_r.o)
 .text._mbtowc_r
                0x0000000000000000       0x18 /opt/gcc-arm-none-eabi-10.3-2021.10/bin/../lib/gcc/arm-none-eabi/10.3.1/../../../../arm-none-eabi/lib/thumb/v6-m/nofp/libc.a(lib_a-mbtowc_r.o)
 .text          0x0000000000000000        0x0 /opt/gcc-arm-none-eabi-10.3-2021.10/bin/../lib/gcc/arm-none-eabi/10.3.1/../../../../arm-none-eabi/lib/thumb/v6-m/nofp/libc.a(lib_a-wctomb_r.o)
 .data          0x0000000000000000        0x0 /opt/gcc-arm-none-eabi-10.3-2021.10/bin/../lib/gcc/arm-none-eabi/10.3.1/../../../../arm-none-eabi/lib/thumb/v6-m/nofp/libc.a(lib_a-wctomb_r.o)
 .bss           0x0000000000000000        0x0 /opt/gcc-arm-none-eabi-10.3-2021.10/bin/../lib/gcc/arm-none-eabi/10.3.1/../../../../arm-none-eabi/lib/thumb/v6-m/nofp/libc.a(lib_a-wctomb_r.o)
 .text._wctomb_r
                0x0000000000000000       0x10 /opt/gcc-arm-none-eabi-10.3-2021.10/bin/../lib/gcc/arm-none-eabi/10.3.1/../../../../arm-none-eabi/lib/thumb/v6-m/nofp/libc.a(lib_a-wctomb_r.o)
 .text          0x0000000000000000        0x0 /opt/gcc-arm-none-eabi-10.3-2021.10/bin/../lib/gcc/arm-none-eabi/10.3.1/../../../../arm-none-eabi/lib/thumb/v6-m/nofp/libc.a(lib_a-ctype_.o)
 .data          0x0000000000000000        0x0 /opt/gcc-arm-none-eabi-10.3-2021.10/bin/../lib/gcc/arm-none-eabi/10.3.1/../../../../arm-none-eabi/lib/thumb/v6-m/nofp/libc.a(lib_a-ctype_.o)
 .bss           0x0000000000000000        0x0 /opt/gcc-arm-none-eabi-10.3-2021.10/bin/../lib/gcc/arm-none-eabi/10.3.1/../../../../arm-none-eabi/lib/thumb/v6-m/nofp/libc.a(lib_a-ctype_.o)
 .text          0x0000000000000000        0x0 /opt/gcc-arm-none-eabi-10.3-2021.10/bin/../lib/gcc/arm-none-eabi/10.3.1/thumb/v6-m/nofp/crtend.o
 .data          0x0000000000000000        0x0 /opt/gcc-arm-none-eabi-10.3-2021.10/bin/../lib/gcc/arm-none-eabi/10.3.1/thumb/v6-m/nofp/crtend.o
 .bss           0x0000000000000000        0x0 /opt/gcc-arm-none-eabi-10.3-2021.10/bin/../lib/gcc/arm-none-eabi/10.3.1/thumb/v6-m/nofp/crtend.o
 .rodata        0x0000000000000000       0x24 /opt/gcc-arm-none-eabi-10.3-2021.10/bin/../lib/gcc/arm-none-eabi/10.3.1/thumb/v6-m/nofp/crtend.o
 .eh_frame      0x0000000000000000        0x4 /opt/gcc-arm-none-eabi-10.3-2021.10/bin/../lib/gcc/arm-none-eabi/10.3.1/thumb/v6-m/nofp/crtend.o
 .ARM.attributes
                0x0000000000000000       0x2c /opt/gcc-arm-none-eabi-10.3-2021.10/bin/../lib/gcc/arm-none-eabi/10.3.1/thumb/v6-m/nofp/crtend.o
 .text          0x0000000000000000        0x0 /opt/gcc-arm-none-eabi-10.3-2021.10/bin/../lib/gcc/arm-none-eabi/10.3.1/thumb/v6-m/nofp/crtn.o
 .data          0x0000000000000000        0x0 /opt/gcc-arm-none-eabi-10.3-2021.10/bin/../lib/gcc/arm-none-eabi/10.3.1/thumb/v6-m/nofp/crtn.o
 .bss           0x0000000000000000        0x0 /opt/gcc-arm-none-eabi-10.3-2021.10/bin/../lib/gcc/arm-none-eabi/10.3.1/thumb/v6-m/nofp/crtn.o
 .init          0x0000000000000000        0x8 /opt/gcc-arm-none-eabi-10.3-2021.10/bin/../lib/gcc/arm-none-eabi/10.3.1/thumb/v6-m/nofp/crtn.o
 .fini          0x0000000000000000        0x8 /opt/gcc-arm-none-eabi-10.3-2021.10/bin/../lib/gcc/arm-none-eabi/10.3.1/thumb/v6-m/nofp/crtn.o
 .ARM.attributes
                0x0000000000000000       0x1e /opt/gcc-arm-none-eabi-10.3-2021.10/bin/../lib/gcc/arm-none-eabi/10.3.1/thumb/v6-m/nofp/crtn.o

Memory Configuration

Name             Origin             Length             Attributes
FLASH            0x0000000010000000 0x0000000000200000 xr
RAM              0x0000000020000000 0x0000000000040000 xrw
SCRATCH_X        0x0000000020040000 0x0000000000001000 xrw
SCRATCH_Y        0x0000000020041000 0x0000000000001000 xrw
*default*        0x0000000000000000 0xffffffffffffffff

Linker script and memory map

LOAD /opt/gcc-arm-none-eabi-10.3-2021.10/bin/../lib/gcc/arm-none-eabi/10.3.1/thumb/v6-m/nofp/crti.o
LOAD /opt/gcc-arm-none-eabi-10.3-2021.10/bin/../lib/gcc/arm-none-eabi/10.3.1/thumb/v6-m/nofp/crtbegin.o
LOAD /opt/gcc-arm-none-eabi-10.3-2021.10/bin/../lib/gcc/arm-none-eabi/10.3.1/../../../../arm-none-eabi/lib/thumb/v6-m/nofp/crt0.o

.flash_begin    0x0000000010000000        0x0
                0x0000000010000000                __flash_binary_start = .

.boot2          0x0000000010000000      0x100
                0x0000000010000000                __boot2_start__ = .
 *(.boot2)
 .boot2         0x0000000010000000      0x100 /tmp/ccOLAkFo.o
                0x0000000010000100                __boot2_end__ = .
                0x0000000000000001                ASSERT (((__boot2_end__ - __boot2_start__) == 0x100), ERROR: Pico second stage bootloader must be 256 bytes in size)

.text           0x0000000010000100     0xf8b8
                0x0000000010000100                __logical_binary_start = .
 *(.vectors)
 .vectors       0x0000000010000100       0xd4 CMakeFiles/cube_robot.dir/home/wang/pico2/pico-sdk/src/rp2_common/pico_standard_link/crt0.S.obj
                0x0000000010000100                __vectors
                0x0000000010000100                __VECTOR_TABLE
                0x00000000100001c0                isr_invalid
                0x00000000100001c0                __default_isrs_start
                0x00000000100001c2                isr_nmi
                0x00000000100001c4                isr_hardfault
                0x00000000100001c6                isr_svcall
                0x00000000100001c8                isr_pendsv
                0x00000000100001ca                isr_systick
                0x00000000100001cc                isr_irq30
                0x00000000100001cc                __unhandled_user_irq
                0x00000000100001cc                isr_irq13
                0x00000000100001cc                isr_irq27
                0x00000000100001cc                isr_irq31
                0x00000000100001cc                isr_irq5
                0x00000000100001cc                isr_irq11
                0x00000000100001cc                isr_irq23
                0x00000000100001cc                isr_irq18
                0x00000000100001cc                isr_irq28
                0x00000000100001cc                isr_irq19
                0x00000000100001cc                isr_irq0
                0x00000000100001cc                isr_irq6
                0x00000000100001cc                isr_irq22
                0x00000000100001cc                isr_irq17
                0x00000000100001cc                isr_irq14
                0x00000000100001cc                isr_irq2
                0x00000000100001cc                isr_irq10
                0x00000000100001cc                isr_irq8
                0x00000000100001cc                isr_irq24
                0x00000000100001cc                isr_irq1
                0x00000000100001cc                isr_irq7
                0x00000000100001cc                isr_irq21
                0x00000000100001cc                isr_irq20
                0x00000000100001cc                isr_irq15
                0x00000000100001cc                isr_irq25
                0x00000000100001cc                isr_irq4
                0x00000000100001cc                isr_irq16
                0x00000000100001cc                isr_irq29
                0x00000000100001cc                isr_irq26
                0x00000000100001cc                __default_isrs_end
                0x00000000100001cc                isr_irq3
                0x00000000100001cc                isr_irq12
                0x00000000100001cc                isr_irq9
                0x00000000100001d2                unhandled_user_irq_num_in_r0
 *(.binary_info_header)
 .binary_info_header
                0x00000000100001d4       0x14 CMakeFiles/cube_robot.dir/home/wang/pico2/pico-sdk/src/rp2_common/pico_standard_link/crt0.S.obj
                0x00000000100001e8                __binary_info_header_end = .
 *(.reset)
 .reset         0x00000000100001e8       0xa0 CMakeFiles/cube_robot.dir/home/wang/pico2/pico-sdk/src/rp2_common/pico_standard_link/crt0.S.obj
                0x00000000100001e8                _entry_point
 .reset         0x0000000010000288       0x30 CMakeFiles/cube_robot.dir/home/wang/pico2/pico-sdk/src/rp2_common/pico_standard_link/binary_info.c.obj
 *(.init)
 .init          0x00000000100002b8        0x4 /opt/gcc-arm-none-eabi-10.3-2021.10/bin/../lib/gcc/arm-none-eabi/10.3.1/thumb/v6-m/nofp/crti.o
                0x00000000100002b8                _init
 *(EXCLUDE_FILE(*libm.a: *libc.a:*lib_a-mem*.o *libgcc.a:) .text*)
 .text          0x00000000100002bc       0x48 /opt/gcc-arm-none-eabi-10.3-2021.10/bin/../lib/gcc/arm-none-eabi/10.3.1/thumb/v6-m/nofp/crtbegin.o
 .text.i2c_get.constprop.0
                0x0000000010000304       0x90 CMakeFiles/cube_robot.dir/cube_robot.c.obj
 .text.cube_lfrb.constprop.0
                0x0000000010000394      0x21c CMakeFiles/cube_robot.dir/cube_robot.c.obj
 .text.stepper_zero
                0x00000000100005b0      0x29c CMakeFiles/cube_robot.dir/cube_robot.c.obj
                0x00000000100005b0                stepper_zero
 .text.init_io  0x000000001000084c      0x1f8 CMakeFiles/cube_robot.dir/cube_robot.c.obj
                0x000000001000084c                init_io
 .text.cube_ud  0x0000000010000a44      0x554 CMakeFiles/cube_robot.dir/cube_robot.c.obj
                0x0000000010000a44                cube_ud
 .text.cube_lfrb
                0x0000000010000f98      0x310 CMakeFiles/cube_robot.dir/cube_robot.c.obj
                0x0000000010000f98                cube_lfrb
 .text.cube_get_color
                0x00000000100012a8      0x87c CMakeFiles/cube_robot.dir/cube_robot.c.obj
                0x00000000100012a8                cube_get_color
 .text.cube_tweak
                0x0000000010001b24      0x2a4 CMakeFiles/cube_robot.dir/cube_robot.c.obj
                0x0000000010001b24                cube_tweak
 .text.cube_tweak_str
                0x0000000010001dc8       0xec CMakeFiles/cube_robot.dir/cube_robot.c.obj
                0x0000000010001dc8                cube_tweak_str
 .text.main_core1
                0x0000000010001eb4       0x48 CMakeFiles/cube_robot.dir/cube_robot.c.obj
                0x0000000010001eb4                main_core1
 .text.i2c_send
                0x0000000010001efc       0x9c CMakeFiles/cube_robot.dir/cube_robot.c.obj
                0x0000000010001efc                i2c_send
 .text.i2c_get  0x0000000010001f98       0xa4 CMakeFiles/cube_robot.dir/cube_robot.c.obj
                0x0000000010001f98                i2c_get
 .text.tcs3472_enable
                0x000000001000203c      0x234 CMakeFiles/cube_robot.dir/cube_robot.c.obj
                0x000000001000203c                tcs3472_enable
 .text.startup.main
                0x0000000010002270      0x7e0 CMakeFiles/cube_robot.dir/cube_robot.c.obj
                0x0000000010002270                main
 .text.rgb2hsv  0x0000000010002a50       0xa8 CMakeFiles/cube_robot.dir/color_detect.c.obj
                0x0000000010002a50                rgb2hsv
 .text.color_detect
                0x0000000010002af8      0x22c CMakeFiles/cube_robot.dir/color_detect.c.obj
                0x0000000010002af8                color_detect
 .text.cube_estimate.part.0
                0x0000000010002d24      0x828 CMakeFiles/cube_robot.dir/solve.c.obj
 .text.cube_from_face_54
                0x000000001000354c       0xf8 CMakeFiles/cube_robot.dir/solve.c.obj
                0x000000001000354c                cube_from_face_54
 .text.cube_route_and_new
                0x0000000010003644      0x1e0 CMakeFiles/cube_robot.dir/solve.c.obj
                0x0000000010003644                cube_route_and_new
 .text.search   0x0000000010003824      0x160 CMakeFiles/cube_robot.dir/solve.c.obj
                0x0000000010003824                search
 .text.solve    0x0000000010003984       0x94 CMakeFiles/cube_robot.dir/solve.c.obj
                0x0000000010003984                solve
 .text.OLED_WriteCommand
                0x0000000010003a18      0x178 CMakeFiles/cube_robot.dir/OLED.c.obj
                0x0000000010003a18                OLED_WriteCommand
 .text.OLED_Update
                0x0000000010003b90      0x1bc CMakeFiles/cube_robot.dir/OLED.c.obj
                0x0000000010003b90                OLED_Update
 .text.OLED_Init
                0x0000000010003d4c       0xd4 CMakeFiles/cube_robot.dir/OLED.c.obj
                0x0000000010003d4c                OLED_Init
 .text.OLED_Clear
                0x0000000010003e20       0x14 CMakeFiles/cube_robot.dir/OLED.c.obj
                0x0000000010003e20                OLED_Clear
 .text.OLED_ShowChar
                0x0000000010003e34      0x744 CMakeFiles/cube_robot.dir/OLED.c.obj
                0x0000000010003e34                OLED_ShowChar
 .text.OLED_Printf
                0x0000000010004578      0x740 CMakeFiles/cube_robot.dir/OLED.c.obj
                0x0000000010004578                OLED_Printf
 .text.gpio_set_pulls
                0x0000000010004cb8       0x30 CMakeFiles/cube_robot.dir/home/wang/pico2/pico-sdk/src/rp2_common/hardware_gpio/gpio.c.obj
                0x0000000010004cb8                gpio_set_pulls
 .text.gpio_init
                0x0000000010004ce8       0x3c CMakeFiles/cube_robot.dir/home/wang/pico2/pico-sdk/src/rp2_common/hardware_gpio/gpio.c.obj
                0x0000000010004ce8                gpio_init
 .text.running_on_fpga
                0x0000000010004d24       0x10 CMakeFiles/cube_robot.dir/home/wang/pico2/pico-sdk/src/rp2_common/pico_platform/platform.c.obj
                0x0000000010004d24                running_on_fpga
 .text.hw_claim_or_assert
                0x0000000010004d34       0x44 CMakeFiles/cube_robot.dir/home/wang/pico2/pico-sdk/src/rp2_common/hardware_claim/claim.c.obj
                0x0000000010004d34                hw_claim_or_assert
 .text.hw_claim_unused_from_range
                0x0000000010004d78       0x9c CMakeFiles/cube_robot.dir/home/wang/pico2/pico-sdk/src/rp2_common/hardware_claim/claim.c.obj
                0x0000000010004d78                hw_claim_unused_from_range
 .text.spin_locks_reset
                0x0000000010004e14       0x1c CMakeFiles/cube_robot.dir/home/wang/pico2/pico-sdk/src/rp2_common/hardware_sync/sync.c.obj
                0x0000000010004e14                spin_locks_reset
 .text.next_striped_spin_lock_num
                0x0000000010004e30       0x18 CMakeFiles/cube_robot.dir/home/wang/pico2/pico-sdk/src/rp2_common/hardware_sync/sync.c.obj
                0x0000000010004e30                next_striped_spin_lock_num
 .text.spin_lock_claim_unused
                0x0000000010004e48       0x20 CMakeFiles/cube_robot.dir/home/wang/pico2/pico-sdk/src/rp2_common/hardware_sync/sync.c.obj
                0x0000000010004e48                spin_lock_claim_unused
 .text.irq_set_enabled
                0x0000000010004e68       0x24 CMakeFiles/cube_robot.dir/home/wang/pico2/pico-sdk/src/rp2_common/hardware_irq/irq.c.obj
                0x0000000010004e68                irq_set_enabled
 .text.irq_is_enabled
                0x0000000010004e8c       0x18 CMakeFiles/cube_robot.dir/home/wang/pico2/pico-sdk/src/rp2_common/hardware_irq/irq.c.obj
                0x0000000010004e8c                irq_is_enabled
 .text.irq_set_pending
                0x0000000010004ea4       0x10 CMakeFiles/cube_robot.dir/home/wang/pico2/pico-sdk/src/rp2_common/hardware_irq/irq.c.obj
                0x0000000010004ea4                irq_set_pending
 .text.irq_has_shared_handler
                0x0000000010004eb4       0x2c CMakeFiles/cube_robot.dir/home/wang/pico2/pico-sdk/src/rp2_common/hardware_irq/irq.c.obj
                0x0000000010004eb4                irq_has_shared_handler
 .text.irq_get_vtable_handler
                0x0000000010004ee0       0x10 CMakeFiles/cube_robot.dir/home/wang/pico2/pico-sdk/src/rp2_common/hardware_irq/irq.c.obj
                0x0000000010004ee0                irq_get_vtable_handler
 .text.irq_set_exclusive_handler
                0x0000000010004ef0       0x54 CMakeFiles/cube_robot.dir/home/wang/pico2/pico-sdk/src/rp2_common/hardware_irq/irq.c.obj
                0x0000000010004ef0                irq_set_exclusive_handler
 .text.irq_add_shared_handler
                0x0000000010004f44      0x1e8 CMakeFiles/cube_robot.dir/home/wang/pico2/pico-sdk/src/rp2_common/hardware_irq/irq.c.obj
                0x0000000010004f44                irq_add_shared_handler
 .text.irq_remove_handler
                0x000000001000512c      0x1b0 CMakeFiles/cube_robot.dir/home/wang/pico2/pico-sdk/src/rp2_common/hardware_irq/irq.c.obj
                0x000000001000512c                irq_remove_handler
 .text.irq_add_tail_to_free_list
                0x00000000100052dc       0xb4 CMakeFiles/cube_robot.dir/home/wang/pico2/pico-sdk/src/rp2_common/hardware_irq/irq.c.obj
                0x00000000100052dc                irq_add_tail_to_free_list
 .text.irq_init_priorities
                0x0000000010005390       0x24 CMakeFiles/cube_robot.dir/home/wang/pico2/pico-sdk/src/rp2_common/hardware_irq/irq.c.obj
                0x0000000010005390                irq_init_priorities
 .text.user_irq_claim_unused
                0x00000000100053b4       0x28 CMakeFiles/cube_robot.dir/home/wang/pico2/pico-sdk/src/rp2_common/hardware_irq/irq.c.obj
                0x00000000100053b4                user_irq_claim_unused
 .text.lock_init
                0x00000000100053dc       0x10 CMakeFiles/cube_robot.dir/home/wang/pico2/pico-sdk/src/common/pico_sync/lock_core.c.obj
                0x00000000100053dc                lock_init
 .text.mutex_init
                0x00000000100053ec       0x1c CMakeFiles/cube_robot.dir/home/wang/pico2/pico-sdk/src/common/pico_sync/mutex.c.obj
                0x00000000100053ec                mutex_init
 .text.recursive_mutex_init
                0x0000000010005408       0x1c CMakeFiles/cube_robot.dir/home/wang/pico2/pico-sdk/src/common/pico_sync/mutex.c.obj
                0x0000000010005408                recursive_mutex_init
 .text.critical_section_init
                0x0000000010005424       0x20 CMakeFiles/cube_robot.dir/home/wang/pico2/pico-sdk/src/common/pico_sync/critical_section.c.obj
                0x0000000010005424                critical_section_init
 .text.critical_section_init_with_lock_num
                0x0000000010005444       0x14 CMakeFiles/cube_robot.dir/home/wang/pico2/pico-sdk/src/common/pico_sync/critical_section.c.obj
                0x0000000010005444                critical_section_init_with_lock_num
 .text.timer_pool_entry_comparator
                0x0000000010005458       0x34 CMakeFiles/cube_robot.dir/home/wang/pico2/pico-sdk/src/common/pico_time/time.c.obj
                0x0000000010005458                timer_pool_entry_comparator
 .text.sleep_until_callback
                0x000000001000548c       0x30 CMakeFiles/cube_robot.dir/home/wang/pico2/pico-sdk/src/common/pico_time/time.c.obj
 .text.add_alarm_under_lock.isra.0
                0x00000000100054bc      0x100 CMakeFiles/cube_robot.dir/home/wang/pico2/pico-sdk/src/common/pico_time/time.c.obj
 .text.alarm_pool_alarm_callback
                0x00000000100055bc      0x1bc CMakeFiles/cube_robot.dir/home/wang/pico2/pico-sdk/src/common/pico_time/time.c.obj
 .text.alarm_pool_init_default
                0x0000000010005778       0x6c CMakeFiles/cube_robot.dir/home/wang/pico2/pico-sdk/src/common/pico_time/time.c.obj
                0x0000000010005778                alarm_pool_init_default
 .text.alarm_pool_get_default
                0x00000000100057e4        0x8 CMakeFiles/cube_robot.dir/home/wang/pico2/pico-sdk/src/common/pico_time/time.c.obj
                0x00000000100057e4                alarm_pool_get_default
 .text.alarm_pool_add_alarm_at
                0x00000000100057ec      0x178 CMakeFiles/cube_robot.dir/home/wang/pico2/pico-sdk/src/common/pico_time/time.c.obj
                0x00000000100057ec                alarm_pool_add_alarm_at
 .text.alarm_pool_core_num
                0x0000000010005964        0x4 CMakeFiles/cube_robot.dir/home/wang/pico2/pico-sdk/src/common/pico_time/time.c.obj
                0x0000000010005964                alarm_pool_core_num
 .text.sleep_until
                0x0000000010005968       0xc4 CMakeFiles/cube_robot.dir/home/wang/pico2/pico-sdk/src/common/pico_time/time.c.obj
                0x0000000010005968                sleep_until
 .text.sleep_us
                0x0000000010005a2c       0x24 CMakeFiles/cube_robot.dir/home/wang/pico2/pico-sdk/src/common/pico_time/time.c.obj
                0x0000000010005a2c                sleep_us
 .text.sleep_ms
                0x0000000010005a50       0x34 CMakeFiles/cube_robot.dir/home/wang/pico2/pico-sdk/src/common/pico_time/time.c.obj
                0x0000000010005a50                sleep_ms
 .text.best_effort_wfe_or_timeout
                0x0000000010005a84       0xd4 CMakeFiles/cube_robot.dir/home/wang/pico2/pico-sdk/src/common/pico_time/time.c.obj
                0x0000000010005a84                best_effort_wfe_or_timeout
 .text.hardware_alarm_irq_handler
                0x0000000010005b58       0xbc CMakeFiles/cube_robot.dir/home/wang/pico2/pico-sdk/src/rp2_common/hardware_timer/timer.c.obj
 .text.hardware_alarm_claim
                0x0000000010005c14       0x18 CMakeFiles/cube_robot.dir/home/wang/pico2/pico-sdk/src/rp2_common/hardware_timer/timer.c.obj
                0x0000000010005c14                hardware_alarm_claim
 .text.time_us_64
                0x0000000010005c2c       0x14 CMakeFiles/cube_robot.dir/home/wang/pico2/pico-sdk/src/rp2_common/hardware_timer/timer.c.obj
                0x0000000010005c2c                time_us_64
 .text.busy_wait_until
                0x0000000010005c40       0x20 CMakeFiles/cube_robot.dir/home/wang/pico2/pico-sdk/src/rp2_common/hardware_timer/timer.c.obj
                0x0000000010005c40                busy_wait_until
 .text.hardware_alarm_set_callback
                0x0000000010005c60       0x8c CMakeFiles/cube_robot.dir/home/wang/pico2/pico-sdk/src/rp2_common/hardware_timer/timer.c.obj
                0x0000000010005c60                hardware_alarm_set_callback
 .text.hardware_alarm_set_target
                0x0000000010005cec       0xd4 CMakeFiles/cube_robot.dir/home/wang/pico2/pico-sdk/src/rp2_common/hardware_timer/timer.c.obj
                0x0000000010005cec                hardware_alarm_set_target
 .text.hardware_alarm_cancel
                0x0000000010005dc0       0x3c CMakeFiles/cube_robot.dir/home/wang/pico2/pico-sdk/src/rp2_common/hardware_timer/timer.c.obj
                0x0000000010005dc0                hardware_alarm_cancel
 .text.ph_merge_nodes
                0x0000000010005dfc       0x68 CMakeFiles/cube_robot.dir/home/wang/pico2/pico-sdk/src/common/pico_util/pheap.c.obj
 .text.ph_post_alloc_init
                0x0000000010005e64       0x3c CMakeFiles/cube_robot.dir/home/wang/pico2/pico-sdk/src/common/pico_util/pheap.c.obj
                0x0000000010005e64                ph_post_alloc_init
 .text.ph_merge_two_pass
                0x0000000010005ea0       0x90 CMakeFiles/cube_robot.dir/home/wang/pico2/pico-sdk/src/common/pico_util/pheap.c.obj
                0x0000000010005ea0                ph_merge_two_pass
 .text.ph_remove_any_head
                0x0000000010005f30      0x100 CMakeFiles/cube_robot.dir/home/wang/pico2/pico-sdk/src/common/pico_util/pheap.c.obj
 .text.ph_remove_head
                0x0000000010006030      0x104 CMakeFiles/cube_robot.dir/home/wang/pico2/pico-sdk/src/common/pico_util/pheap.c.obj
                0x0000000010006030                ph_remove_head
 .text.ph_remove_and_free_node
                0x0000000010006134       0x7c CMakeFiles/cube_robot.dir/home/wang/pico2/pico-sdk/src/common/pico_util/pheap.c.obj
                0x0000000010006134                ph_remove_and_free_node
 .text.clocks_init
                0x00000000100061b0      0x2d0 CMakeFiles/cube_robot.dir/home/wang/pico2/pico-sdk/src/rp2_common/hardware_clocks/clocks.c.obj
                0x00000000100061b0                clocks_init
 .text.pll_init
                0x0000000010006480       0xa0 CMakeFiles/cube_robot.dir/home/wang/pico2/pico-sdk/src/rp2_common/hardware_pll/pll.c.obj
                0x0000000010006480                pll_init
 .text.watchdog_start_tick
                0x0000000010006520       0x10 CMakeFiles/cube_robot.dir/home/wang/pico2/pico-sdk/src/rp2_common/hardware_watchdog/watchdog.c.obj
                0x0000000010006520                watchdog_start_tick
 .text.watchdog_reboot
                0x0000000010006530       0x98 CMakeFiles/cube_robot.dir/home/wang/pico2/pico-sdk/src/rp2_common/hardware_watchdog/watchdog.c.obj
                0x0000000010006530                watchdog_reboot
 .text.xosc_init
                0x00000000100065c8       0x28 CMakeFiles/cube_robot.dir/home/wang/pico2/pico-sdk/src/rp2_common/hardware_xosc/xosc.c.obj
                0x00000000100065c8                xosc_init
 .text.runtime_init
                0x00000000100065f0       0xf0 CMakeFiles/cube_robot.dir/home/wang/pico2/pico-sdk/src/rp2_common/pico_runtime/runtime.c.obj
                0x00000000100065f0                runtime_init
 .text._exit    0x00000000100066e0        0x4 CMakeFiles/cube_robot.dir/home/wang/pico2/pico-sdk/src/rp2_common/pico_runtime/runtime.c.obj
                0x00000000100066e0                _exit
 .text._sbrk    0x00000000100066e4       0x34 CMakeFiles/cube_robot.dir/home/wang/pico2/pico-sdk/src/rp2_common/pico_runtime/runtime.c.obj
                0x00000000100066e4                _sbrk
 .text.exit     0x0000000010006718        0x8 CMakeFiles/cube_robot.dir/home/wang/pico2/pico-sdk/src/rp2_common/pico_runtime/runtime.c.obj
                0x0000000010006718                exit
 .text.__assert_func
                0x0000000010006720       0x34 CMakeFiles/cube_robot.dir/home/wang/pico2/pico-sdk/src/rp2_common/pico_runtime/runtime.c.obj
                0x0000000010006720                __assert_func
 .text.panic    0x0000000010006754       0x30 CMakeFiles/cube_robot.dir/home/wang/pico2/pico-sdk/src/rp2_common/pico_runtime/runtime.c.obj
                0x0000000010006754                panic
 .text.hard_assertion_failure
                0x0000000010006784        0xc CMakeFiles/cube_robot.dir/home/wang/pico2/pico-sdk/src/rp2_common/pico_runtime/runtime.c.obj
                0x0000000010006784                hard_assertion_failure
 .text._out_null
                0x0000000010006790        0x4 CMakeFiles/cube_robot.dir/home/wang/pico2/pico-sdk/src/rp2_common/pico_printf/printf.c.obj
 .text._out_rev
                0x0000000010006794       0x9c CMakeFiles/cube_robot.dir/home/wang/pico2/pico-sdk/src/rp2_common/pico_printf/printf.c.obj
 .text._ntoa_format
                0x0000000010006830      0x1cc CMakeFiles/cube_robot.dir/home/wang/pico2/pico-sdk/src/rp2_common/pico_printf/printf.c.obj
 .text._out_char
                0x00000000100069fc       0x10 CMakeFiles/cube_robot.dir/home/wang/pico2/pico-sdk/src/rp2_common/pico_printf/printf.c.obj
 .text._out_fct
                0x0000000010006a0c       0x10 CMakeFiles/cube_robot.dir/home/wang/pico2/pico-sdk/src/rp2_common/pico_printf/printf.c.obj
 .text._etoa    0x0000000010006a1c      0x44c CMakeFiles/cube_robot.dir/home/wang/pico2/pico-sdk/src/rp2_common/pico_printf/printf.c.obj
 .text._ftoa    0x0000000010006e68      0x398 CMakeFiles/cube_robot.dir/home/wang/pico2/pico-sdk/src/rp2_common/pico_printf/printf.c.obj
 .text._vsnprintf
                0x0000000010007200      0xb04 CMakeFiles/cube_robot.dir/home/wang/pico2/pico-sdk/src/rp2_common/pico_printf/printf.c.obj
 .text.vfctprintf
                0x0000000010007d04       0x20 CMakeFiles/cube_robot.dir/home/wang/pico2/pico-sdk/src/rp2_common/pico_printf/printf.c.obj
                0x0000000010007d04                vfctprintf
 .text.weak_raw_printf
                0x0000000010007d24       0x40 CMakeFiles/cube_robot.dir/home/wang/pico2/pico-sdk/src/rp2_common/pico_printf/printf.c.obj
                0x0000000010007d24                weak_raw_printf
 .text.weak_raw_vprintf
                0x0000000010007d64       0x30 CMakeFiles/cube_robot.dir/home/wang/pico2/pico-sdk/src/rp2_common/pico_printf/printf.c.obj
                0x0000000010007d64                weak_raw_vprintf
 .text          0x0000000010007d94       0x10 CMakeFiles/cube_robot.dir/home/wang/pico2/pico-sdk/src/rp2_common/pico_bit_ops/bit_ops_aeabi.S.obj
 .text.rom_func_lookup
                0x0000000010007da4       0x10 CMakeFiles/cube_robot.dir/home/wang/pico2/pico-sdk/src/rp2_common/pico_bootrom/bootrom.c.obj
                0x0000000010007da4                rom_func_lookup
 .text.rom_data_lookup
                0x0000000010007db4       0x10 CMakeFiles/cube_robot.dir/home/wang/pico2/pico-sdk/src/rp2_common/pico_bootrom/bootrom.c.obj
                0x0000000010007db4                rom_data_lookup
 .text.rom_funcs_lookup
                0x0000000010007dc4       0x44 CMakeFiles/cube_robot.dir/home/wang/pico2/pico-sdk/src/rp2_common/pico_bootrom/bootrom.c.obj
                0x0000000010007dc4                rom_funcs_lookup
 .text.__wrap___aeabi_idiv
                0x0000000010007e08       0x50 CMakeFiles/cube_robot.dir/home/wang/pico2/pico-sdk/src/rp2_common/pico_divider/divider.S.obj
                0x0000000010007e08                __wrap___aeabi_idivmod
                0x0000000010007e08                divmod_s32s32
                0x0000000010007e08                div_s32s32
                0x0000000010007e08                __wrap___aeabi_idiv
                0x0000000010007e10                divmod_s32s32_unsafe
                0x0000000010007e3c                divmod_s32s32_savestate
 .text.__wrap___aeabi_uidiv
                0x0000000010007e58       0x4c CMakeFiles/cube_robot.dir/home/wang/pico2/pico-sdk/src/rp2_common/pico_divider/divider.S.obj
                0x0000000010007e58                __wrap___aeabi_uidiv
                0x0000000010007e58                __wrap___aeabi_uidivmod
                0x0000000010007e58                div_u32u32
                0x0000000010007e58                divmod_u32u32
                0x0000000010007e60                divmod_u32u32_unsafe
                0x0000000010007e88                divmod_u32u32_savestate
 .text.__wrap___aeabi_ldiv
                0x0000000010007ea4      0x424 CMakeFiles/cube_robot.dir/home/wang/pico2/pico-sdk/src/rp2_common/pico_divider/divider.S.obj
                0x0000000010007ea4                div_s64s64
                0x0000000010007ea4                divmod_s64s64
                0x0000000010007ea4                __wrap___aeabi_ldivmod
                0x0000000010007ed4                div_u64u64
                0x0000000010007ed4                divmod_u64u64
                0x0000000010007ed4                __wrap___aeabi_uldivmod
                0x0000000010007ee4                divmod_u64u64_savestate
                0x0000000010007f04                divmod_s64s64_unsafe
                0x0000000010007f8c                divmod_u64u64_unsafe
 .text.__wrap___aeabi_darithmetic
                0x00000000100082c8       0x80 CMakeFiles/cube_robot.dir/home/wang/pico2/pico-sdk/src/rp2_common/pico_double/double_aeabi.S.obj
                0x00000000100082c8                __wrap___aeabi_drsub
                0x00000000100082ce                __wrap___aeabi_dsub
                0x00000000100082e0                __wrap___aeabi_dadd
                0x00000000100082f2                __wrap___aeabi_ddiv
                0x000000001000832e                __wrap___aeabi_dmul
 .text.__wrap___aeabi_cdcmple
                0x0000000010008348       0x6c CMakeFiles/cube_robot.dir/home/wang/pico2/pico-sdk/src/rp2_common/pico_double/double_aeabi.S.obj
                0x0000000010008348                __wrap___aeabi_cdrcmple
                0x0000000010008358                __wrap___aeabi_cdcmple
                0x0000000010008358                __wrap___aeabi_cdcmpeq
 .text.__wrap___aeabi_dcmpeq
                0x00000000100083b4       0x10 CMakeFiles/cube_robot.dir/home/wang/pico2/pico-sdk/src/rp2_common/pico_double/double_aeabi.S.obj
                0x00000000100083b4                __wrap___aeabi_dcmpeq
 .text.__wrap___aeabi_dcmplt
                0x00000000100083c4        0xc CMakeFiles/cube_robot.dir/home/wang/pico2/pico-sdk/src/rp2_common/pico_double/double_aeabi.S.obj
                0x00000000100083c4                __wrap___aeabi_dcmplt
 .text.__wrap___aeabi_dcmple
                0x00000000100083d0       0x10 CMakeFiles/cube_robot.dir/home/wang/pico2/pico-sdk/src/rp2_common/pico_double/double_aeabi.S.obj
                0x00000000100083d0                __wrap___aeabi_dcmple
 .text.__wrap___aeabi_dcmpge
                0x00000000100083e0       0x10 CMakeFiles/cube_robot.dir/home/wang/pico2/pico-sdk/src/rp2_common/pico_double/double_aeabi.S.obj
                0x00000000100083e0                __wrap___aeabi_dcmpge
 .text.__wrap___aeabi_dcmpgt
                0x00000000100083f0        0xa CMakeFiles/cube_robot.dir/home/wang/pico2/pico-sdk/src/rp2_common/pico_double/double_aeabi.S.obj
                0x00000000100083f0                __wrap___aeabi_dcmpgt
 .text.__wrap___aeabi_dcmpun
                0x00000000100083fa       0x1c CMakeFiles/cube_robot.dir/home/wang/pico2/pico-sdk/src/rp2_common/pico_double/double_aeabi.S.obj
                0x00000000100083fa                __wrap___aeabi_dcmpun
 *fill*         0x0000000010008416        0x2 
 .text.__wrap___aeabi_i2d
                0x0000000010008418       0x38 CMakeFiles/cube_robot.dir/home/wang/pico2/pico-sdk/src/rp2_common/pico_double/double_aeabi.S.obj
                0x0000000010008418                __wrap___aeabi_ui2d
                0x0000000010008420                __wrap___aeabi_i2d
 .text.__wrap___aeabi_d2iz
                0x0000000010008450       0x48 CMakeFiles/cube_robot.dir/home/wang/pico2/pico-sdk/src/rp2_common/pico_double/double_aeabi.S.obj
                0x0000000010008450                __wrap___aeabi_d2iz
                0x0000000010008450                double2int_z
 .text.__wrap___aeabi_d2uiz
                0x0000000010008498       0x18 CMakeFiles/cube_robot.dir/home/wang/pico2/pico-sdk/src/rp2_common/pico_double/double_aeabi.S.obj
                0x0000000010008498                double2uint
                0x0000000010008498                __wrap___aeabi_d2uiz
 .text.__aeabi_double_init
                0x00000000100084b0       0x94 CMakeFiles/cube_robot.dir/home/wang/pico2/pico-sdk/src/rp2_common/pico_double/double_init_rom.c.obj
                0x00000000100084b0                __aeabi_double_init
 .text.double_table_shim_on_use_helper
                0x0000000010008544       0x2c CMakeFiles/cube_robot.dir/home/wang/pico2/pico-sdk/src/rp2_common/pico_double/double_v1_rom_shim.S.obj
                0x0000000010008544                double_table_shim_on_use_helper
 .text.__wrap___aeabi_dsub
                0x0000000010008570       0x10 CMakeFiles/cube_robot.dir/home/wang/pico2/pico-sdk/src/rp2_common/pico_double/double_v1_rom_shim.S.obj
                0x0000000010008570                drsub_shim
                0x0000000010008576                dsub_shim
 .text.dadd_shim
                0x0000000010008580      0x15c CMakeFiles/cube_robot.dir/home/wang/pico2/pico-sdk/src/rp2_common/pico_double/double_v1_rom_shim.S.obj
                0x0000000010008580                dadd_shim
 .text.dmul_shim
                0x00000000100086dc      0x15c CMakeFiles/cube_robot.dir/home/wang/pico2/pico-sdk/src/rp2_common/pico_double/double_v1_rom_shim.S.obj
                0x00000000100086dc                dmul_shim
 .text.ddiv_shim
                0x0000000010008838      0x1b0 CMakeFiles/cube_robot.dir/home/wang/pico2/pico-sdk/src/rp2_common/pico_double/double_v1_rom_shim.S.obj
                0x0000000010008838                ddiv_shim
 .text.double2uint_shim
                0x00000000100089e8        0xe CMakeFiles/cube_robot.dir/home/wang/pico2/pico-sdk/src/rp2_common/pico_double/double_v1_rom_shim.S.obj
                0x00000000100089e8                double2uint_shim
                0x00000000100089ea                double2ufix_shim
 *fill*         0x00000000100089f6        0x2 
 .text.double2uint64_shim
                0x00000000100089f8       0x70 CMakeFiles/cube_robot.dir/home/wang/pico2/pico-sdk/src/rp2_common/pico_double/double_v1_rom_shim.S.obj
                0x00000000100089f8                double2uint64_shim
                0x00000000100089fa                double2ufix64_shim
                0x0000000010008a1a                d2fix_a
 .text.dunpacks
                0x0000000010008a68       0x3c CMakeFiles/cube_robot.dir/home/wang/pico2/pico-sdk/src/rp2_common/pico_double/double_v1_rom_shim.S.obj
                0x0000000010008a68                dunpacks
 .text.__aeabi_lmul
                0x0000000010008aa4       0x32 CMakeFiles/cube_robot.dir/home/wang/pico2/pico-sdk/src/rp2_common/pico_int64_ops/pico_int64_ops_aeabi.S.obj
                0x0000000010008aa4                __wrap___aeabi_lmul
 *fill*         0x0000000010008ad6        0x2 
 .text.__wrap___aeabi_farithmetic
                0x0000000010008ad8       0x48 CMakeFiles/cube_robot.dir/home/wang/pico2/pico-sdk/src/rp2_common/pico_float/float_aeabi.S.obj
                0x0000000010008ad8                __wrap___aeabi_frsub
                0x0000000010008ade                __wrap___aeabi_fsub
                0x0000000010008ae4                __wrap___aeabi_fadd
                0x0000000010008aea                __wrap___aeabi_fdiv
                0x0000000010008b12                __wrap___aeabi_fmul
 .text.__wrap___aeabi_f2ulz
                0x0000000010008b20       0x14 CMakeFiles/cube_robot.dir/home/wang/pico2/pico-sdk/src/rp2_common/pico_float/float_aeabi.S.obj
                0x0000000010008b20                __wrap___aeabi_f2ulz
 .text.__wrap_sqrtf
                0x0000000010008b34       0x20 CMakeFiles/cube_robot.dir/home/wang/pico2/pico-sdk/src/rp2_common/pico_float/float_aeabi.S.obj
                0x0000000010008b34                __wrap_sqrtf
 .text.__aeabi_float_init
                0x0000000010008b54       0x64 CMakeFiles/cube_robot.dir/home/wang/pico2/pico-sdk/src/rp2_common/pico_float/float_init_rom.c.obj
                0x0000000010008b54                __aeabi_float_init
 .text.__wrap_roundf
                0x0000000010008bb8       0x3c CMakeFiles/cube_robot.dir/home/wang/pico2/pico-sdk/src/rp2_common/pico_float/float_math.c.obj
                0x0000000010008bb8                __wrap_roundf
 .text.float_table_shim_on_use_helper
                0x0000000010008bf4       0x2c CMakeFiles/cube_robot.dir/home/wang/pico2/pico-sdk/src/rp2_common/pico_float/float_v1_rom_shim.S.obj
                0x0000000010008bf4                float_table_shim_on_use_helper
 .text.float264_shims
                0x0000000010008c20       0x4c CMakeFiles/cube_robot.dir/home/wang/pico2/pico-sdk/src/rp2_common/pico_float/float_v1_rom_shim.S.obj
                0x0000000010008c20                float2int64_shim
                0x0000000010008c22                float2fix64_shim
                0x0000000010008c2a                float2uint64_shim
                0x0000000010008c2c                float2ufix64_shim
 .text.d2fix_a_float
                0x0000000010008c6c       0x5c CMakeFiles/cube_robot.dir/home/wang/pico2/pico-sdk/src/rp2_common/pico_float/float_v1_rom_shim.S.obj
 .text          0x0000000010008cc8       0x10 CMakeFiles/cube_robot.dir/home/wang/pico2/pico-sdk/src/rp2_common/pico_mem_ops/mem_ops_aeabi.S.obj
                0x0000000010008cc8                __aeabi_mem_init
 .text.memset   0x0000000010008cd8        0xc CMakeFiles/cube_robot.dir/home/wang/pico2/pico-sdk/src/rp2_common/pico_mem_ops/mem_ops_aeabi.S.obj
                0x0000000010008cd8                __wrap_memset
 .text.memcpy   0x0000000010008ce4        0xc CMakeFiles/cube_robot.dir/home/wang/pico2/pico-sdk/src/rp2_common/pico_mem_ops/mem_ops_aeabi.S.obj
                0x0000000010008ce4                __wrap___aeabi_memcpy
                0x0000000010008ce4                __wrap_memcpy
 .text.stdio_out_chars_no_crlf
                0x0000000010008cf0       0x10 CMakeFiles/cube_robot.dir/home/wang/pico2/pico-sdk/src/rp2_common/pico_stdio/stdio.c.obj
 .text.stdio_out_chars_crlf
                0x0000000010008d00       0xb4 CMakeFiles/cube_robot.dir/home/wang/pico2/pico-sdk/src/rp2_common/pico_stdio/stdio.c.obj
 .text.stdio_buffered_printer
                0x0000000010008db4       0x64 CMakeFiles/cube_robot.dir/home/wang/pico2/pico-sdk/src/rp2_common/pico_stdio/stdio.c.obj
 .text.stdio_put_string.isra.0
                0x0000000010008e18       0xfc CMakeFiles/cube_robot.dir/home/wang/pico2/pico-sdk/src/rp2_common/pico_stdio/stdio.c.obj
 .text.__wrap_putchar
                0x0000000010008f14       0x98 CMakeFiles/cube_robot.dir/home/wang/pico2/pico-sdk/src/rp2_common/pico_stdio/stdio.c.obj
                0x0000000010008f14                __wrap_putchar
 .text.__wrap_puts
                0x0000000010008fac       0x3c CMakeFiles/cube_robot.dir/home/wang/pico2/pico-sdk/src/rp2_common/pico_stdio/stdio.c.obj
                0x0000000010008fac                __wrap_puts
 .text.stdio_set_driver_enabled
                0x0000000010008fe8       0x30 CMakeFiles/cube_robot.dir/home/wang/pico2/pico-sdk/src/rp2_common/pico_stdio/stdio.c.obj
                0x0000000010008fe8                stdio_set_driver_enabled
 .text.__wrap_vprintf
                0x0000000010009018       0xd8 CMakeFiles/cube_robot.dir/home/wang/pico2/pico-sdk/src/rp2_common/pico_stdio/stdio.c.obj
                0x0000000010009018                __wrap_vprintf
 .text.__wrap_printf
                0x00000000100090f0       0x18 CMakeFiles/cube_robot.dir/home/wang/pico2/pico-sdk/src/rp2_common/pico_stdio/stdio.c.obj
                0x00000000100090f0                __wrap_printf
 .text.stdio_init_all
                0x0000000010009108        0x8 CMakeFiles/cube_robot.dir/home/wang/pico2/pico-sdk/src/rp2_common/pico_stdio/stdio.c.obj
                0x0000000010009108                stdio_init_all
 .text.resetd_init
                0x0000000010009110        0x4 CMakeFiles/cube_robot.dir/home/wang/pico2/pico-sdk/src/rp2_common/pico_stdio_usb/reset_interface.c.obj
 .text.resetd_reset
                0x0000000010009114        0xc CMakeFiles/cube_robot.dir/home/wang/pico2/pico-sdk/src/rp2_common/pico_stdio_usb/reset_interface.c.obj
 .text.resetd_open
                0x0000000010009120       0x28 CMakeFiles/cube_robot.dir/home/wang/pico2/pico-sdk/src/rp2_common/pico_stdio_usb/reset_interface.c.obj
 .text.resetd_xfer_cb
                0x0000000010009148        0x4 CMakeFiles/cube_robot.dir/home/wang/pico2/pico-sdk/src/rp2_common/pico_stdio_usb/reset_interface.c.obj
 .text.resetd_control_xfer_cb
                0x000000001000914c       0x64 CMakeFiles/cube_robot.dir/home/wang/pico2/pico-sdk/src/rp2_common/pico_stdio_usb/reset_interface.c.obj
 .text.usbd_app_driver_get_cb
                0x00000000100091b0        0xc CMakeFiles/cube_robot.dir/home/wang/pico2/pico-sdk/src/rp2_common/pico_stdio_usb/reset_interface.c.obj
                0x00000000100091b0                usbd_app_driver_get_cb
 .text.tud_cdc_line_coding_cb
                0x00000000100091bc       0x34 CMakeFiles/cube_robot.dir/home/wang/pico2/pico-sdk/src/rp2_common/pico_stdio_usb/reset_interface.c.obj
                0x00000000100091bc                tud_cdc_line_coding_cb
 .text.stdio_usb_set_chars_available_callback
                0x00000000100091f0       0x14 CMakeFiles/cube_robot.dir/home/wang/pico2/pico-sdk/src/rp2_common/pico_stdio_usb/stdio_usb.c.obj
                0x00000000100091f0                stdio_usb_set_chars_available_callback
 .text.usb_irq  0x0000000010009204       0x10 CMakeFiles/cube_robot.dir/home/wang/pico2/pico-sdk/src/rp2_common/pico_stdio_usb/stdio_usb.c.obj
 .text.timer_task
                0x0000000010009214       0x54 CMakeFiles/cube_robot.dir/home/wang/pico2/pico-sdk/src/rp2_common/pico_stdio_usb/stdio_usb.c.obj
 .text.stdio_usb_in_chars
                0x0000000010009268       0x90 CMakeFiles/cube_robot.dir/home/wang/pico2/pico-sdk/src/rp2_common/pico_stdio_usb/stdio_usb.c.obj
                0x0000000010009268                stdio_usb_in_chars
 .text.stdio_usb_out_chars
                0x00000000100092f8      0x100 CMakeFiles/cube_robot.dir/home/wang/pico2/pico-sdk/src/rp2_common/pico_stdio_usb/stdio_usb.c.obj
 .text.low_priority_worker_irq
                0x00000000100093f8       0xa8 CMakeFiles/cube_robot.dir/home/wang/pico2/pico-sdk/src/rp2_common/pico_stdio_usb/stdio_usb.c.obj
 .text.tud_cdc_rx_cb
                0x00000000100094a0       0x20 CMakeFiles/cube_robot.dir/home/wang/pico2/pico-sdk/src/rp2_common/pico_stdio_usb/stdio_usb.c.obj
                0x00000000100094a0                tud_cdc_rx_cb
 .text.stdio_usb_init
                0x00000000100094c0       0xdc CMakeFiles/cube_robot.dir/home/wang/pico2/pico-sdk/src/rp2_common/pico_stdio_usb/stdio_usb.c.obj
                0x00000000100094c0                stdio_usb_init
 .text.tud_descriptor_device_cb
                0x000000001000959c        0x8 CMakeFiles/cube_robot.dir/home/wang/pico2/pico-sdk/src/rp2_common/pico_stdio_usb/stdio_usb_descriptors.c.obj
                0x000000001000959c                tud_descriptor_device_cb
 .text.tud_descriptor_configuration_cb
                0x00000000100095a4        0x8 CMakeFiles/cube_robot.dir/home/wang/pico2/pico-sdk/src/rp2_common/pico_stdio_usb/stdio_usb_descriptors.c.obj
                0x00000000100095a4                tud_descriptor_configuration_cb
 .text.tud_descriptor_string_cb
                0x00000000100095ac       0x74 CMakeFiles/cube_robot.dir/home/wang/pico2/pico-sdk/src/rp2_common/pico_stdio_usb/stdio_usb_descriptors.c.obj
                0x00000000100095ac                tud_descriptor_string_cb
 .text.startup._retrieve_unique_id_on_boot
                0x0000000010009620       0x10 CMakeFiles/cube_robot.dir/home/wang/pico2/pico-sdk/src/rp2_common/pico_unique_id/unique_id.c.obj
 .text.pico_get_unique_board_id_string
                0x0000000010009630      0x1a8 CMakeFiles/cube_robot.dir/home/wang/pico2/pico-sdk/src/rp2_common/pico_unique_id/unique_id.c.obj
                0x0000000010009630                pico_get_unique_board_id_string
 .text.flash_get_unique_id
                0x00000000100097d8       0x40 CMakeFiles/cube_robot.dir/home/wang/pico2/pico-sdk/src/rp2_common/hardware_flash/flash.c.obj
                0x00000000100097d8                flash_get_unique_id
 .text.dcd_int_enable
                0x0000000010009818        0xc CMakeFiles/cube_robot.dir/home/wang/pico2/pico-sdk/lib/tinyusb/src/portable/raspberrypi/rp2040/dcd_rp2040.c.obj
                0x0000000010009818                dcd_int_enable
 .text.dcd_set_address
                0x0000000010009824       0x14 CMakeFiles/cube_robot.dir/home/wang/pico2/pico-sdk/lib/tinyusb/src/portable/raspberrypi/rp2040/dcd_rp2040.c.obj
                0x0000000010009824                dcd_set_address
 .text.dcd_connect
                0x0000000010009838       0x10 CMakeFiles/cube_robot.dir/home/wang/pico2/pico-sdk/lib/tinyusb/src/portable/raspberrypi/rp2040/dcd_rp2040.c.obj
                0x0000000010009838                dcd_connect
 .text.dcd_init
                0x0000000010009848       0x98 CMakeFiles/cube_robot.dir/home/wang/pico2/pico-sdk/lib/tinyusb/src/portable/raspberrypi/rp2040/dcd_rp2040.c.obj
                0x0000000010009848                dcd_init
 .text.dcd_edpt0_status_complete
                0x00000000100098e0       0x1c CMakeFiles/cube_robot.dir/home/wang/pico2/pico-sdk/lib/tinyusb/src/portable/raspberrypi/rp2040/dcd_rp2040.c.obj
                0x00000000100098e0                dcd_edpt0_status_complete
 .text.dcd_edpt_open
                0x00000000100098fc      0x108 CMakeFiles/cube_robot.dir/home/wang/pico2/pico-sdk/lib/tinyusb/src/portable/raspberrypi/rp2040/dcd_rp2040.c.obj
                0x00000000100098fc                dcd_edpt_open
 .text.dcd_edpt_close_all
                0x0000000010009a04        0x8 CMakeFiles/cube_robot.dir/home/wang/pico2/pico-sdk/lib/tinyusb/src/portable/raspberrypi/rp2040/dcd_rp2040.c.obj
                0x0000000010009a04                dcd_edpt_close_all
 .text.dcd_edpt_xfer
                0x0000000010009a0c       0x24 CMakeFiles/cube_robot.dir/home/wang/pico2/pico-sdk/lib/tinyusb/src/portable/raspberrypi/rp2040/dcd_rp2040.c.obj
                0x0000000010009a0c                dcd_edpt_xfer
 .text.dcd_edpt_stall
                0x0000000010009a30       0x38 CMakeFiles/cube_robot.dir/home/wang/pico2/pico-sdk/lib/tinyusb/src/portable/raspberrypi/rp2040/dcd_rp2040.c.obj
                0x0000000010009a30                dcd_edpt_stall
 .text.dcd_edpt_clear_stall
                0x0000000010009a68       0x30 CMakeFiles/cube_robot.dir/home/wang/pico2/pico-sdk/lib/tinyusb/src/portable/raspberrypi/rp2040/dcd_rp2040.c.obj
                0x0000000010009a68                dcd_edpt_clear_stall
 .text.rp2040_usb_init
                0x0000000010009a98       0x4c CMakeFiles/cube_robot.dir/home/wang/pico2/pico-sdk/lib/tinyusb/src/portable/raspberrypi/rp2040/rp2040_usb.c.obj
                0x0000000010009a98                rp2040_usb_init
 .text.hw_endpoint_xfer_start
                0x0000000010009ae4       0x50 CMakeFiles/cube_robot.dir/home/wang/pico2/pico-sdk/lib/tinyusb/src/portable/raspberrypi/rp2040/rp2040_usb.c.obj
                0x0000000010009ae4                hw_endpoint_xfer_start
 .text.tud_mounted
                0x0000000010009b34       0x10 CMakeFiles/cube_robot.dir/home/wang/pico2/pico-sdk/lib/tinyusb/src/device/usbd.c.obj
                0x0000000010009b34                tud_mounted
 .text.tud_suspended
                0x0000000010009b44       0x10 CMakeFiles/cube_robot.dir/home/wang/pico2/pico-sdk/lib/tinyusb/src/device/usbd.c.obj
                0x0000000010009b44                tud_suspended
 .text.tud_inited
                0x0000000010009b54       0x14 CMakeFiles/cube_robot.dir/home/wang/pico2/pico-sdk/lib/tinyusb/src/device/usbd.c.obj
                0x0000000010009b54                tud_inited
 .text.tud_init
                0x0000000010009b68       0xe4 CMakeFiles/cube_robot.dir/home/wang/pico2/pico-sdk/lib/tinyusb/src/device/usbd.c.obj
                0x0000000010009b68                tud_init
 .text.tud_task_ext
                0x0000000010009c4c      0x854 CMakeFiles/cube_robot.dir/home/wang/pico2/pico-sdk/lib/tinyusb/src/device/usbd.c.obj
                0x0000000010009c4c                tud_task_ext
 .text.usbd_open_edpt_pair
                0x000000001000a4a0       0x9c CMakeFiles/cube_robot.dir/home/wang/pico2/pico-sdk/lib/tinyusb/src/device/usbd.c.obj
                0x000000001000a4a0                usbd_open_edpt_pair
 .text.usbd_defer_func
                0x000000001000a53c       0x48 CMakeFiles/cube_robot.dir/home/wang/pico2/pico-sdk/lib/tinyusb/src/device/usbd.c.obj
                0x000000001000a53c                usbd_defer_func
 .text.usbd_edpt_open
                0x000000001000a584       0x34 CMakeFiles/cube_robot.dir/home/wang/pico2/pico-sdk/lib/tinyusb/src/device/usbd.c.obj
                0x000000001000a584                usbd_edpt_open
 .text.usbd_edpt_claim
                0x000000001000a5b8       0x28 CMakeFiles/cube_robot.dir/home/wang/pico2/pico-sdk/lib/tinyusb/src/device/usbd.c.obj
                0x000000001000a5b8                usbd_edpt_claim
 .text.usbd_edpt_release
                0x000000001000a5e0       0x28 CMakeFiles/cube_robot.dir/home/wang/pico2/pico-sdk/lib/tinyusb/src/device/usbd.c.obj
                0x000000001000a5e0                usbd_edpt_release
 .text.usbd_edpt_xfer
                0x000000001000a608       0x4c CMakeFiles/cube_robot.dir/home/wang/pico2/pico-sdk/lib/tinyusb/src/device/usbd.c.obj
                0x000000001000a608                usbd_edpt_xfer
 .text.tud_control_status
                0x000000001000a654       0x30 CMakeFiles/cube_robot.dir/home/wang/pico2/pico-sdk/lib/tinyusb/src/device/usbd_control.c.obj
                0x000000001000a654                tud_control_status
 .text.tud_control_xfer
                0x000000001000a684       0xbc CMakeFiles/cube_robot.dir/home/wang/pico2/pico-sdk/lib/tinyusb/src/device/usbd_control.c.obj
                0x000000001000a684                tud_control_xfer
 .text.usbd_control_reset
                0x000000001000a740       0x14 CMakeFiles/cube_robot.dir/home/wang/pico2/pico-sdk/lib/tinyusb/src/device/usbd_control.c.obj
                0x000000001000a740                usbd_control_reset
 .text.usbd_control_set_complete_callback
                0x000000001000a754        0xc CMakeFiles/cube_robot.dir/home/wang/pico2/pico-sdk/lib/tinyusb/src/device/usbd_control.c.obj
                0x000000001000a754                usbd_control_set_complete_callback
 .text.usbd_control_set_request
                0x000000001000a760       0x1c CMakeFiles/cube_robot.dir/home/wang/pico2/pico-sdk/lib/tinyusb/src/device/usbd_control.c.obj
                0x000000001000a760                usbd_control_set_request
 .text.usbd_control_xfer_cb
                0x000000001000a77c       0xfc CMakeFiles/cube_robot.dir/home/wang/pico2/pico-sdk/lib/tinyusb/src/device/usbd_control.c.obj
                0x000000001000a77c                usbd_control_xfer_cb
 .text.tud_cdc_n_connected
                0x000000001000a878       0x30 CMakeFiles/cube_robot.dir/home/wang/pico2/pico-sdk/lib/tinyusb/src/class/cdc/cdc_device.c.obj
                0x000000001000a878                tud_cdc_n_connected
 .text.tud_cdc_n_available
                0x000000001000a8a8       0x18 CMakeFiles/cube_robot.dir/home/wang/pico2/pico-sdk/lib/tinyusb/src/class/cdc/cdc_device.c.obj
                0x000000001000a8a8                tud_cdc_n_available
 .text.tud_cdc_n_read
                0x000000001000a8c0       0x70 CMakeFiles/cube_robot.dir/home/wang/pico2/pico-sdk/lib/tinyusb/src/class/cdc/cdc_device.c.obj
                0x000000001000a8c0                tud_cdc_n_read
 .text.tud_cdc_n_write_flush
                0x000000001000a930       0x78 CMakeFiles/cube_robot.dir/home/wang/pico2/pico-sdk/lib/tinyusb/src/class/cdc/cdc_device.c.obj
                0x000000001000a930                tud_cdc_n_write_flush
 .text.tud_cdc_n_write
                0x000000001000a9a8       0x34 CMakeFiles/cube_robot.dir/home/wang/pico2/pico-sdk/lib/tinyusb/src/class/cdc/cdc_device.c.obj
                0x000000001000a9a8                tud_cdc_n_write
 .text.tud_cdc_n_write_available
                0x000000001000a9dc       0x18 CMakeFiles/cube_robot.dir/home/wang/pico2/pico-sdk/lib/tinyusb/src/class/cdc/cdc_device.c.obj
                0x000000001000a9dc                tud_cdc_n_write_available
 .text.cdcd_init
                0x000000001000a9f4       0x7c CMakeFiles/cube_robot.dir/home/wang/pico2/pico-sdk/lib/tinyusb/src/class/cdc/cdc_device.c.obj
                0x000000001000a9f4                cdcd_init
 .text.cdcd_reset
                0x000000001000aa70       0x2c CMakeFiles/cube_robot.dir/home/wang/pico2/pico-sdk/lib/tinyusb/src/class/cdc/cdc_device.c.obj
                0x000000001000aa70                cdcd_reset
 .text.cdcd_open
                0x000000001000aa9c       0xe8 CMakeFiles/cube_robot.dir/home/wang/pico2/pico-sdk/lib/tinyusb/src/class/cdc/cdc_device.c.obj
                0x000000001000aa9c                cdcd_open
 .text.cdcd_control_xfer_cb
                0x000000001000ab84       0xe4 CMakeFiles/cube_robot.dir/home/wang/pico2/pico-sdk/lib/tinyusb/src/class/cdc/cdc_device.c.obj
                0x000000001000ab84                cdcd_control_xfer_cb
 .text.cdcd_xfer_cb
                0x000000001000ac68      0x148 CMakeFiles/cube_robot.dir/home/wang/pico2/pico-sdk/lib/tinyusb/src/class/cdc/cdc_device.c.obj
                0x000000001000ac68                cdcd_xfer_cb
 .text.tusb_init
                0x000000001000adb0        0xc CMakeFiles/cube_robot.dir/home/wang/pico2/pico-sdk/lib/tinyusb/src/tusb.c.obj
                0x000000001000adb0                tusb_init
 .text.tusb_inited
                0x000000001000adbc        0x8 CMakeFiles/cube_robot.dir/home/wang/pico2/pico-sdk/lib/tinyusb/src/tusb.c.obj
                0x000000001000adbc                tusb_inited
 .text.tu_edpt_claim
                0x000000001000adc4       0x50 CMakeFiles/cube_robot.dir/home/wang/pico2/pico-sdk/lib/tinyusb/src/tusb.c.obj
                0x000000001000adc4                tu_edpt_claim
 .text.tu_edpt_release
                0x000000001000ae14       0x38 CMakeFiles/cube_robot.dir/home/wang/pico2/pico-sdk/lib/tinyusb/src/tusb.c.obj
                0x000000001000ae14                tu_edpt_release
 .text.tu_edpt_validate
                0x000000001000ae4c       0x78 CMakeFiles/cube_robot.dir/home/wang/pico2/pico-sdk/lib/tinyusb/src/tusb.c.obj
                0x000000001000ae4c                tu_edpt_validate
 .text.tu_edpt_bind_driver
                0x000000001000aec4       0x34 CMakeFiles/cube_robot.dir/home/wang/pico2/pico-sdk/lib/tinyusb/src/tusb.c.obj
                0x000000001000aec4                tu_edpt_bind_driver
 .text.tu_fifo_config
                0x000000001000aef8       0x70 CMakeFiles/cube_robot.dir/home/wang/pico2/pico-sdk/lib/tinyusb/src/common/tusb_fifo.c.obj
                0x000000001000aef8                tu_fifo_config
 .text.tu_fifo_count
                0x000000001000af68       0x2c CMakeFiles/cube_robot.dir/home/wang/pico2/pico-sdk/lib/tinyusb/src/common/tusb_fifo.c.obj
                0x000000001000af68                tu_fifo_count
 .text.tu_fifo_empty
                0x000000001000af94       0x10 CMakeFiles/cube_robot.dir/home/wang/pico2/pico-sdk/lib/tinyusb/src/common/tusb_fifo.c.obj
                0x000000001000af94                tu_fifo_empty
 .text.tu_fifo_remaining
                0x000000001000afa4       0x2c CMakeFiles/cube_robot.dir/home/wang/pico2/pico-sdk/lib/tinyusb/src/common/tusb_fifo.c.obj
                0x000000001000afa4                tu_fifo_remaining
 .text.tu_fifo_read
                0x000000001000afd0       0xa0 CMakeFiles/cube_robot.dir/home/wang/pico2/pico-sdk/lib/tinyusb/src/common/tusb_fifo.c.obj
                0x000000001000afd0                tu_fifo_read
 .text.tu_fifo_read_n
                0x000000001000b070       0xec CMakeFiles/cube_robot.dir/home/wang/pico2/pico-sdk/lib/tinyusb/src/common/tusb_fifo.c.obj
                0x000000001000b070                tu_fifo_read_n
 .text.tu_fifo_write
                0x000000001000b15c       0x88 CMakeFiles/cube_robot.dir/home/wang/pico2/pico-sdk/lib/tinyusb/src/common/tusb_fifo.c.obj
                0x000000001000b15c                tu_fifo_write
 .text.tu_fifo_write_n
                0x000000001000b1e4      0x168 CMakeFiles/cube_robot.dir/home/wang/pico2/pico-sdk/lib/tinyusb/src/common/tusb_fifo.c.obj
                0x000000001000b1e4                tu_fifo_write_n
 .text.tu_fifo_clear
                0x000000001000b34c       0x40 CMakeFiles/cube_robot.dir/home/wang/pico2/pico-sdk/lib/tinyusb/src/common/tusb_fifo.c.obj
                0x000000001000b34c                tu_fifo_clear
 .text.tu_fifo_set_overwritable
                0x000000001000b38c       0x48 CMakeFiles/cube_robot.dir/home/wang/pico2/pico-sdk/lib/tinyusb/src/common/tusb_fifo.c.obj
                0x000000001000b38c                tu_fifo_set_overwritable
 .text.core1_trampoline
                0x000000001000b3d4        0x4 CMakeFiles/cube_robot.dir/home/wang/pico2/pico-sdk/src/rp2_common/pico_multicore/multicore.c.obj
 .text.core1_wrapper
                0x000000001000b3d8        0xc CMakeFiles/cube_robot.dir/home/wang/pico2/pico-sdk/src/rp2_common/pico_multicore/multicore.c.obj
                0x000000001000b3d8                core1_wrapper
 .text.multicore_fifo_push_blocking
                0x000000001000b3e4       0x14 CMakeFiles/cube_robot.dir/home/wang/pico2/pico-sdk/src/rp2_common/pico_multicore/multicore.c.obj
                0x000000001000b3e4                multicore_fifo_push_blocking
 .text.multicore_fifo_pop_blocking
                0x000000001000b3f8       0x1c CMakeFiles/cube_robot.dir/home/wang/pico2/pico-sdk/src/rp2_common/pico_multicore/multicore.c.obj
                0x000000001000b3f8                multicore_fifo_pop_blocking
 .text.multicore_launch_core1_raw
                0x000000001000b414       0x84 CMakeFiles/cube_robot.dir/home/wang/pico2/pico-sdk/src/rp2_common/pico_multicore/multicore.c.obj
                0x000000001000b414                multicore_launch_core1_raw
 .text.multicore_launch_core1
                0x000000001000b498       0x4c CMakeFiles/cube_robot.dir/home/wang/pico2/pico-sdk/src/rp2_common/pico_multicore/multicore.c.obj
                0x000000001000b498                multicore_launch_core1
 .text._calloc_r
                0x000000001000b4e4       0x9c /opt/gcc-arm-none-eabi-10.3-2021.10/bin/../lib/gcc/arm-none-eabi/10.3.1/../../../../arm-none-eabi/lib/thumb/v6-m/nofp/libc.a(lib_a-callocr.o)
                0x000000001000b4e4                _calloc_r
 .text.__errno  0x000000001000b580        0xc /opt/gcc-arm-none-eabi-10.3-2021.10/bin/../lib/gcc/arm-none-eabi/10.3.1/../../../../arm-none-eabi/lib/thumb/v6-m/nofp/libc.a(lib_a-errno.o)
                0x000000001000b580                __errno
 .text._malloc_r
                0x000000001000b58c      0x584 /opt/gcc-arm-none-eabi-10.3-2021.10/bin/../lib/gcc/arm-none-eabi/10.3.1/../../../../arm-none-eabi/lib/thumb/v6-m/nofp/libc.a(lib_a-mallocr.o)
                0x000000001000b58c                _malloc_r
 .text.__malloc_lock
                0x000000001000bb10       0x10 /opt/gcc-arm-none-eabi-10.3-2021.10/bin/../lib/gcc/arm-none-eabi/10.3.1/../../../../arm-none-eabi/lib/thumb/v6-m/nofp/libc.a(lib_a-mlock.o)
                0x000000001000bb10                __malloc_lock
 .text.__malloc_unlock
                0x000000001000bb20       0x10 /opt/gcc-arm-none-eabi-10.3-2021.10/bin/../lib/gcc/arm-none-eabi/10.3.1/../../../../arm-none-eabi/lib/thumb/v6-m/nofp/libc.a(lib_a-mlock.o)
                0x000000001000bb20                __malloc_unlock
 .text._realloc_r
                0x000000001000bb30      0x354 /opt/gcc-arm-none-eabi-10.3-2021.10/bin/../lib/gcc/arm-none-eabi/10.3.1/../../../../arm-none-eabi/lib/thumb/v6-m/nofp/libc.a(lib_a-reallocr.o)
                0x000000001000bb30                _realloc_r
 .text._sbrk_r  0x000000001000be84       0x24 /opt/gcc-arm-none-eabi-10.3-2021.10/bin/../lib/gcc/arm-none-eabi/10.3.1/../../../../arm-none-eabi/lib/thumb/v6-m/nofp/libc.a(lib_a-sbrkr.o)
                0x000000001000be84                _sbrk_r
 .text.strlen   0x000000001000bea8       0x5c /opt/gcc-arm-none-eabi-10.3-2021.10/bin/../lib/gcc/arm-none-eabi/10.3.1/../../../../arm-none-eabi/lib/thumb/v6-m/nofp/libc.a(lib_a-strlen-stub.o)
                0x000000001000bea8                strlen
 .text.vsprintf
                0x000000001000bf04       0x38 /opt/gcc-arm-none-eabi-10.3-2021.10/bin/../lib/gcc/arm-none-eabi/10.3.1/../../../../arm-none-eabi/lib/thumb/v6-m/nofp/libc.a(lib_a-vsprintf.o)
                0x000000001000bf04                vsprintf
 .text._malloc_trim_r
                0x000000001000bf3c       0x9c /opt/gcc-arm-none-eabi-10.3-2021.10/bin/../lib/gcc/arm-none-eabi/10.3.1/../../../../arm-none-eabi/lib/thumb/v6-m/nofp/libc.a(lib_a-freer.o)
                0x000000001000bf3c                _malloc_trim_r
 .text._free_r  0x000000001000bfd8      0x1c4 /opt/gcc-arm-none-eabi-10.3-2021.10/bin/../lib/gcc/arm-none-eabi/10.3.1/../../../../arm-none-eabi/lib/thumb/v6-m/nofp/libc.a(lib_a-freer.o)
                0x000000001000bfd8                _free_r
 .text.__retarget_lock_acquire_recursive
                0x000000001000c19c        0x4 /opt/gcc-arm-none-eabi-10.3-2021.10/bin/../lib/gcc/arm-none-eabi/10.3.1/../../../../arm-none-eabi/lib/thumb/v6-m/nofp/libc.a(lib_a-lock.o)
                0x000000001000c19c                __retarget_lock_acquire_recursive
 .text.__retarget_lock_release_recursive
                0x000000001000c1a0        0x4 /opt/gcc-arm-none-eabi-10.3-2021.10/bin/../lib/gcc/arm-none-eabi/10.3.1/../../../../arm-none-eabi/lib/thumb/v6-m/nofp/libc.a(lib_a-lock.o)
                0x000000001000c1a0                __retarget_lock_release_recursive
 .text._svfprintf_r
                0x000000001000c1a4     0x1bd4 /opt/gcc-arm-none-eabi-10.3-2021.10/bin/../lib/gcc/arm-none-eabi/10.3.1/../../../../arm-none-eabi/lib/thumb/v6-m/nofp/libc.a(lib_a-svfprintf.o)
                0x000000001000c1a4                _svfprintf_r
 .text.quorem   0x000000001000dd78      0x148 /opt/gcc-arm-none-eabi-10.3-2021.10/bin/../lib/gcc/arm-none-eabi/10.3.1/../../../../arm-none-eabi/lib/thumb/v6-m/nofp/libc.a(lib_a-dtoa.o)
 .text._dtoa_r  0x000000001000dec0      0xfbc /opt/gcc-arm-none-eabi-10.3-2021.10/bin/../lib/gcc/arm-none-eabi/10.3.1/../../../../arm-none-eabi/lib/thumb/v6-m/nofp/libc.a(lib_a-dtoa.o)
                0x000000001000dec0                _dtoa_r
 .text._localeconv_r
                0x000000001000ee7c        0x8 /opt/gcc-arm-none-eabi-10.3-2021.10/bin/../lib/gcc/arm-none-eabi/10.3.1/../../../../arm-none-eabi/lib/thumb/v6-m/nofp/libc.a(lib_a-localeconv.o)
                0x000000001000ee7c                _localeconv_r
 .text._Balloc  0x000000001000ee84       0x50 /opt/gcc-arm-none-eabi-10.3-2021.10/bin/../lib/gcc/arm-none-eabi/10.3.1/../../../../arm-none-eabi/lib/thumb/v6-m/nofp/libc.a(lib_a-mprec.o)
                0x000000001000ee84                _Balloc
 .text._Bfree   0x000000001000eed4       0x14 /opt/gcc-arm-none-eabi-10.3-2021.10/bin/../lib/gcc/arm-none-eabi/10.3.1/../../../../arm-none-eabi/lib/thumb/v6-m/nofp/libc.a(lib_a-mprec.o)
                0x000000001000eed4                _Bfree
 .text.__multadd
                0x000000001000eee8       0xa8 /opt/gcc-arm-none-eabi-10.3-2021.10/bin/../lib/gcc/arm-none-eabi/10.3.1/../../../../arm-none-eabi/lib/thumb/v6-m/nofp/libc.a(lib_a-mprec.o)
                0x000000001000eee8                __multadd
 .text.__hi0bits
                0x000000001000ef90       0x38 /opt/gcc-arm-none-eabi-10.3-2021.10/bin/../lib/gcc/arm-none-eabi/10.3.1/../../../../arm-none-eabi/lib/thumb/v6-m/nofp/libc.a(lib_a-mprec.o)
                0x000000001000ef90                __hi0bits
 .text.__lo0bits
                0x000000001000efc8       0x5c /opt/gcc-arm-none-eabi-10.3-2021.10/bin/../lib/gcc/arm-none-eabi/10.3.1/../../../../arm-none-eabi/lib/thumb/v6-m/nofp/libc.a(lib_a-mprec.o)
                0x000000001000efc8                __lo0bits
 .text.__i2b    0x000000001000f024       0x60 /opt/gcc-arm-none-eabi-10.3-2021.10/bin/../lib/gcc/arm-none-eabi/10.3.1/../../../../arm-none-eabi/lib/thumb/v6-m/nofp/libc.a(lib_a-mprec.o)
                0x000000001000f024                __i2b
 .text.__multiply
                0x000000001000f084      0x1a4 /opt/gcc-arm-none-eabi-10.3-2021.10/bin/../lib/gcc/arm-none-eabi/10.3.1/../../../../arm-none-eabi/lib/thumb/v6-m/nofp/libc.a(lib_a-mprec.o)
                0x000000001000f084                __multiply
 .text.__pow5mult
                0x000000001000f228       0xd8 /opt/gcc-arm-none-eabi-10.3-2021.10/bin/../lib/gcc/arm-none-eabi/10.3.1/../../../../arm-none-eabi/lib/thumb/v6-m/nofp/libc.a(lib_a-mprec.o)
                0x000000001000f228                __pow5mult
 .text.__lshift
                0x000000001000f300       0xfc /opt/gcc-arm-none-eabi-10.3-2021.10/bin/../lib/gcc/arm-none-eabi/10.3.1/../../../../arm-none-eabi/lib/thumb/v6-m/nofp/libc.a(lib_a-mprec.o)
                0x000000001000f300                __lshift
 .text.__mcmp   0x000000001000f3fc       0x34 /opt/gcc-arm-none-eabi-10.3-2021.10/bin/../lib/gcc/arm-none-eabi/10.3.1/../../../../arm-none-eabi/lib/thumb/v6-m/nofp/libc.a(lib_a-mprec.o)
                0x000000001000f3fc                __mcmp
 .text.__mdiff  0x000000001000f430      0x18c /opt/gcc-arm-none-eabi-10.3-2021.10/bin/../lib/gcc/arm-none-eabi/10.3.1/../../../../arm-none-eabi/lib/thumb/v6-m/nofp/libc.a(lib_a-mprec.o)
                0x000000001000f430                __mdiff
 .text.__d2b    0x000000001000f5bc       0xd8 /opt/gcc-arm-none-eabi-10.3-2021.10/bin/../lib/gcc/arm-none-eabi/10.3.1/../../../../arm-none-eabi/lib/thumb/v6-m/nofp/libc.a(lib_a-mprec.o)
                0x000000001000f5bc                __d2b
 .text.frexp    0x000000001000f694       0x64 /opt/gcc-arm-none-eabi-10.3-2021.10/bin/../lib/gcc/arm-none-eabi/10.3.1/../../../../arm-none-eabi/lib/thumb/v6-m/nofp/libc.a(lib_a-s_frexp.o)
                0x000000001000f694                frexp
 .text.strncpy  0x000000001000f6f8       0x6c /opt/gcc-arm-none-eabi-10.3-2021.10/bin/../lib/gcc/arm-none-eabi/10.3.1/../../../../arm-none-eabi/lib/thumb/v6-m/nofp/libc.a(lib_a-strncpy.o)
                0x000000001000f6f8                strncpy
 .text.__ssprint_r
                0x000000001000f764      0x114 /opt/gcc-arm-none-eabi-10.3-2021.10/bin/../lib/gcc/arm-none-eabi/10.3.1/../../../../arm-none-eabi/lib/thumb/v6-m/nofp/libc.a(lib_a-svfiprintf.o)
                0x000000001000f764                __ssprint_r
 .text.__ascii_mbtowc
                0x000000001000f878       0x2c /opt/gcc-arm-none-eabi-10.3-2021.10/bin/../lib/gcc/arm-none-eabi/10.3.1/../../../../arm-none-eabi/lib/thumb/v6-m/nofp/libc.a(lib_a-mbtowc_r.o)
                0x000000001000f878                __ascii_mbtowc
 .text.__ascii_wctomb
                0x000000001000f8a4       0x1c /opt/gcc-arm-none-eabi-10.3-2021.10/bin/../lib/gcc/arm-none-eabi/10.3.1/../../../../arm-none-eabi/lib/thumb/v6-m/nofp/libc.a(lib_a-wctomb_r.o)
                0x000000001000f8a4                __ascii_wctomb
 *(.fini)
 .fini          0x000000001000f8c0        0x4 /opt/gcc-arm-none-eabi-10.3-2021.10/bin/../lib/gcc/arm-none-eabi/10.3.1/thumb/v6-m/nofp/crti.o
                0x000000001000f8c0                _fini
 *fill*         0x000000001000f8c4        0x4 
 .fini.__stub   0x000000001000f8c8       0xf0 linker stubs
 *crtbegin.o(.ctors)
 *crtbegin?.o(.ctors)
 *(EXCLUDE_FILE(*crtend.o *crtend?.o) .ctors)
 *(SORT_BY_NAME(.ctors.*))
 *(.ctors)
 *crtbegin.o(.dtors)
 *crtbegin?.o(.dtors)
 *(EXCLUDE_FILE(*crtend.o *crtend?.o) .dtors)
 *(SORT_BY_NAME(.dtors.*))
 *(.dtors)
 *(.eh_frame*)
 .eh_frame      0x000000001000f9b8        0x0 /opt/gcc-arm-none-eabi-10.3-2021.10/bin/../lib/gcc/arm-none-eabi/10.3.1/thumb/v6-m/nofp/crtbegin.o
                0x000000001000f9b8                . = ALIGN (0x4)

.glue_7         0x000000001000f9b8        0x0
 .glue_7        0x000000001000f9b8        0x0 linker stubs

.glue_7t        0x000000001000f9b8        0x0
 .glue_7t       0x000000001000f9b8        0x0 linker stubs

.vfp11_veneer   0x000000001000f9b8        0x0
 .vfp11_veneer  0x000000001000f9b8        0x0 linker stubs

.v4_bx          0x000000001000f9b8        0x0
 .v4_bx         0x000000001000f9b8        0x0 linker stubs

.iplt           0x000000001000f9b8        0x0
 .iplt          0x000000001000f9b8        0x0 /opt/gcc-arm-none-eabi-10.3-2021.10/bin/../lib/gcc/arm-none-eabi/10.3.1/thumb/v6-m/nofp/crtbegin.o

.rodata         0x000000001000f9b8    0xda8dc
 *(EXCLUDE_FILE(*libm.a: *libc.a:*lib_a-mem*.o *libgcc.a:) .rodata*)
 .rodata.cube_tweak_str.str1.4
                0x000000001000f9b8       0x25 CMakeFiles/cube_robot.dir/cube_robot.c.obj
 *fill*         0x000000001000f9dd        0x3 
 .rodata.main.str1.4
                0x000000001000f9e0      0x106 CMakeFiles/cube_robot.dir/cube_robot.c.obj
 *fill*         0x000000001000fae6        0x2 
 .rodata        0x000000001000fae8      0x12b CMakeFiles/cube_robot.dir/cube_robot.c.obj
 *fill*         0x000000001000fc13        0x1 
 .rodata.i2c_gpio
                0x000000001000fc14       0x10 CMakeFiles/cube_robot.dir/cube_robot.c.obj
                0x000000001000fc14                i2c_gpio
 .rodata.color_detect.str1.4
                0x000000001000fc24       0x15 CMakeFiles/cube_robot.dir/color_detect.c.obj
 *fill*         0x000000001000fc39        0x3 
 .rodata.G0_tab
                0x000000001000fc3c      0x400 CMakeFiles/cube_robot.dir/prun_table.c.obj
                0x000000001000fc3c                G0_tab
 .rodata.G1_tab
                0x000000001001003c    0x84263 CMakeFiles/cube_robot.dir/prun_table.c.obj
                0x000000001001003c                G1_tab
 *fill*         0x000000001009429f        0x1 
 .rodata.G2_tab
                0x00000000100942a0     0x396c CMakeFiles/cube_robot.dir/prun_table.c.obj
                0x00000000100942a0                G2_tab
 .rodata.G3_tab
                0x0000000010097c0c    0x51000 CMakeFiles/cube_robot.dir/prun_table.c.obj
                0x0000000010097c0c                G3_tab
 .rodata.CSWTCH.44
                0x00000000100e8c0c        0xc CMakeFiles/cube_robot.dir/solve.c.obj
 .rodata.G0_allow
                0x00000000100e8c18       0x12 CMakeFiles/cube_robot.dir/solve.c.obj
                0x00000000100e8c18                G0_allow
 *fill*         0x00000000100e8c2a        0x2 
 .rodata.G1_allow
                0x00000000100e8c2c        0xe CMakeFiles/cube_robot.dir/solve.c.obj
                0x00000000100e8c2c                G1_allow
 *fill*         0x00000000100e8c3a        0x2 
 .rodata.G2_allow
                0x00000000100e8c3c        0xa CMakeFiles/cube_robot.dir/solve.c.obj
                0x00000000100e8c3c                G2_allow
 *fill*         0x00000000100e8c46        0x2 
 .rodata.G3_allow
                0x00000000100e8c48        0x6 CMakeFiles/cube_robot.dir/solve.c.obj
                0x00000000100e8c48                G3_allow
 *fill*         0x00000000100e8c4e        0x2 
 .rodata.corner_index
                0x00000000100e8c50       0x48 CMakeFiles/cube_robot.dir/solve.c.obj
                0x00000000100e8c50                corner_index
 .rodata.corner_to_face
                0x00000000100e8c98       0x18 CMakeFiles/cube_robot.dir/solve.c.obj
                0x00000000100e8c98                corner_to_face
 .rodata.edge_index
                0x00000000100e8cb0       0x30 CMakeFiles/cube_robot.dir/solve.c.obj
                0x00000000100e8cb0                edge_index
 .rodata.edge_to_face
                0x00000000100e8ce0       0x18 CMakeFiles/cube_robot.dir/solve.c.obj
                0x00000000100e8ce0                edge_to_face
 .rodata.route_index
                0x00000000100e8cf8       0x36 CMakeFiles/cube_robot.dir/solve.c.obj
                0x00000000100e8cf8                route_index
 *fill*         0x00000000100e8d2e        0x2 
 .rodata.route_tab_cp
                0x00000000100e8d30       0x90 CMakeFiles/cube_robot.dir/solve.c.obj
                0x00000000100e8d30                route_tab_cp
 .rodata.route_tab_cr
                0x00000000100e8dc0       0x90 CMakeFiles/cube_robot.dir/solve.c.obj
                0x00000000100e8dc0                route_tab_cr
 .rodata.route_tab_ep
                0x00000000100e8e50       0xd8 CMakeFiles/cube_robot.dir/solve.c.obj
                0x00000000100e8e50                route_tab_ep
 .rodata.route_tab_er
                0x00000000100e8f28       0xd8 CMakeFiles/cube_robot.dir/solve.c.obj
                0x00000000100e8f28                route_tab_er
 .rodata.OLED_F6x8
                0x00000000100e9000      0x23a CMakeFiles/cube_robot.dir/OLED_Data.c.obj
                0x00000000100e9000                OLED_F6x8
 *fill*         0x00000000100e923a        0x2 
 .rodata.OLED_F8x16
                0x00000000100e923c      0x5f0 CMakeFiles/cube_robot.dir/OLED_Data.c.obj
                0x00000000100e923c                OLED_F8x16
 .rodata.spin_lock_claim_unused.str1.4
                0x00000000100e982c       0x1b CMakeFiles/cube_robot.dir/home/wang/pico2/pico-sdk/src/rp2_common/hardware_sync/sync.c.obj
 *fill*         0x00000000100e9847        0x1 
 .rodata.user_irq_claim_unused.str1.4
                0x00000000100e9848       0x1b CMakeFiles/cube_robot.dir/home/wang/pico2/pico-sdk/src/rp2_common/hardware_irq/irq.c.obj
 *fill*         0x00000000100e9863        0x1 
 .rodata.hardware_alarm_claim.str1.4
                0x00000000100e9864       0x22 CMakeFiles/cube_robot.dir/home/wang/pico2/pico-sdk/src/rp2_common/hardware_timer/timer.c.obj
 *fill*         0x00000000100e9886        0x2 
 .rodata.__assert_func.str1.4
                0x00000000100e9888       0x3f CMakeFiles/cube_robot.dir/home/wang/pico2/pico-sdk/src/rp2_common/pico_runtime/runtime.c.obj
                                         0x43 (size before relaxing)
 *fill*         0x00000000100e98c7        0x1 
 .rodata.panic.str1.4
                0x00000000100e98c8       0x10 CMakeFiles/cube_robot.dir/home/wang/pico2/pico-sdk/src/rp2_common/pico_runtime/runtime.c.obj
                                         0x12 (size before relaxing)
 .rodata.hard_assertion_failure.str1.4
                0x00000000100e98d8        0xc CMakeFiles/cube_robot.dir/home/wang/pico2/pico-sdk/src/rp2_common/pico_runtime/runtime.c.obj
 .rodata._ftoa.str1.4
                0x00000000100e98e4       0x15 CMakeFiles/cube_robot.dir/home/wang/pico2/pico-sdk/src/rp2_common/pico_printf/printf.c.obj
 *fill*         0x00000000100e98f9        0x3 
 .rodata._vsnprintf
                0x00000000100e98fc      0x1e0 CMakeFiles/cube_robot.dir/home/wang/pico2/pico-sdk/src/rp2_common/pico_printf/printf.c.obj
 *fill*         0x00000000100e9adc        0x4 
 .rodata.pow10.0
                0x00000000100e9ae0       0x50 CMakeFiles/cube_robot.dir/home/wang/pico2/pico-sdk/src/rp2_common/pico_printf/printf.c.obj
 .rodata.str1.4
                0x00000000100e9b30       0x44 CMakeFiles/cube_robot.dir/home/wang/pico2/pico-sdk/src/rp2_common/pico_standard_link/binary_info.c.obj
 .rodata.__bi_44
                0x00000000100e9b74        0xc CMakeFiles/cube_robot.dir/home/wang/pico2/pico-sdk/src/rp2_common/pico_standard_link/binary_info.c.obj
 .rodata.__bi_56
                0x00000000100e9b80        0xc CMakeFiles/cube_robot.dir/home/wang/pico2/pico-sdk/src/rp2_common/pico_standard_link/binary_info.c.obj
 .rodata.__bi_75
                0x00000000100e9b8c        0xc CMakeFiles/cube_robot.dir/home/wang/pico2/pico-sdk/src/rp2_common/pico_standard_link/binary_info.c.obj
 .rodata.__bi_81
                0x00000000100e9b98        0xc CMakeFiles/cube_robot.dir/home/wang/pico2/pico-sdk/src/rp2_common/pico_standard_link/binary_info.c.obj
 .rodata.crlf_str.0
                0x00000000100e9ba4        0x2 CMakeFiles/cube_robot.dir/home/wang/pico2/pico-sdk/src/rp2_common/pico_stdio/stdio.c.obj
 *fill*         0x00000000100e9ba6        0x2 
 .rodata._resetd_driver
                0x00000000100e9ba8       0x18 CMakeFiles/cube_robot.dir/home/wang/pico2/pico-sdk/src/rp2_common/pico_stdio_usb/reset_interface.c.obj
 .rodata.str1.4
                0x00000000100e9bc0       0x13 CMakeFiles/cube_robot.dir/home/wang/pico2/pico-sdk/src/rp2_common/pico_stdio_usb/stdio_usb.c.obj
 *fill*         0x00000000100e9bd3        0x1 
 .rodata.__bi_182.0
                0x00000000100e9bd4        0xc CMakeFiles/cube_robot.dir/home/wang/pico2/pico-sdk/src/rp2_common/pico_stdio_usb/stdio_usb.c.obj
 .rodata.str1.4
                0x00000000100e9be0       0x2a CMakeFiles/cube_robot.dir/home/wang/pico2/pico-sdk/src/rp2_common/pico_stdio_usb/stdio_usb_descriptors.c.obj
 *fill*         0x00000000100e9c0a        0x2 
 .rodata.usbd_desc_cfg
                0x00000000100e9c0c       0x54 CMakeFiles/cube_robot.dir/home/wang/pico2/pico-sdk/src/rp2_common/pico_stdio_usb/stdio_usb_descriptors.c.obj
 .rodata.usbd_desc_device
                0x00000000100e9c60       0x12 CMakeFiles/cube_robot.dir/home/wang/pico2/pico-sdk/src/rp2_common/pico_stdio_usb/stdio_usb_descriptors.c.obj
 *fill*         0x00000000100e9c72        0x2 
 .rodata.usbd_desc_str
                0x00000000100e9c74       0x18 CMakeFiles/cube_robot.dir/home/wang/pico2/pico-sdk/src/rp2_common/pico_stdio_usb/stdio_usb_descriptors.c.obj
 .rodata.str1.4
                0x00000000100e9c8c       0x14 CMakeFiles/cube_robot.dir/home/wang/pico2/pico-sdk/lib/tinyusb/src/portable/raspberrypi/rp2040/dcd_rp2040.c.obj
 .rodata.str1.4
                0x00000000100e9ca0       0x53 CMakeFiles/cube_robot.dir/home/wang/pico2/pico-sdk/lib/tinyusb/src/portable/raspberrypi/rp2040/rp2040_usb.c.obj
 *fill*         0x00000000100e9cf3        0x1 
 .rodata.tud_task_ext
                0x00000000100e9cf4       0x8c CMakeFiles/cube_robot.dir/home/wang/pico2/pico-sdk/lib/tinyusb/src/device/usbd.c.obj
 .rodata._usbd_driver
                0x00000000100e9d80       0x18 CMakeFiles/cube_robot.dir/home/wang/pico2/pico-sdk/lib/tinyusb/src/device/usbd.c.obj
 .rodata._svfprintf_r.str1.4
                0x00000000100e9d98       0x3b /opt/gcc-arm-none-eabi-10.3-2021.10/bin/../lib/gcc/arm-none-eabi/10.3.1/../../../../arm-none-eabi/lib/thumb/v6-m/nofp/libc.a(lib_a-svfprintf.o)
                                         0x42 (size before relaxing)
 *fill*         0x00000000100e9dd3        0x1 
 .rodata._svfprintf_r
                0x00000000100e9dd4      0x16c /opt/gcc-arm-none-eabi-10.3-2021.10/bin/../lib/gcc/arm-none-eabi/10.3.1/../../../../arm-none-eabi/lib/thumb/v6-m/nofp/libc.a(lib_a-svfprintf.o)
 .rodata.blanks.1
                0x00000000100e9f40       0x10 /opt/gcc-arm-none-eabi-10.3-2021.10/bin/../lib/gcc/arm-none-eabi/10.3.1/../../../../arm-none-eabi/lib/thumb/v6-m/nofp/libc.a(lib_a-svfprintf.o)
 .rodata.zeroes.0
                0x00000000100e9f50       0x10 /opt/gcc-arm-none-eabi-10.3-2021.10/bin/../lib/gcc/arm-none-eabi/10.3.1/../../../../arm-none-eabi/lib/thumb/v6-m/nofp/libc.a(lib_a-svfprintf.o)
 .rodata._dtoa_r.str1.4
                0x00000000100e9f60       0xa2 /opt/gcc-arm-none-eabi-10.3-2021.10/bin/../lib/gcc/arm-none-eabi/10.3.1/../../../../arm-none-eabi/lib/thumb/v6-m/nofp/libc.a(lib_a-dtoa.o)
                                         0xa6 (size before relaxing)
 *fill*         0x00000000100ea002        0x2 
 .rodata.__multadd.str1.4
                0x00000000100ea004       0x7f /opt/gcc-arm-none-eabi-10.3-2021.10/bin/../lib/gcc/arm-none-eabi/10.3.1/../../../../arm-none-eabi/lib/thumb/v6-m/nofp/libc.a(lib_a-mprec.o)
                                         0x93 (size before relaxing)
 *fill*         0x00000000100ea083        0x5 
 .rodata.__mprec_bigtens
                0x00000000100ea088       0x28 /opt/gcc-arm-none-eabi-10.3-2021.10/bin/../lib/gcc/arm-none-eabi/10.3.1/../../../../arm-none-eabi/lib/thumb/v6-m/nofp/libc.a(lib_a-mprec.o)
                0x00000000100ea088                __mprec_bigtens
 .rodata.__mprec_tens
                0x00000000100ea0b0       0xc8 /opt/gcc-arm-none-eabi-10.3-2021.10/bin/../lib/gcc/arm-none-eabi/10.3.1/../../../../arm-none-eabi/lib/thumb/v6-m/nofp/libc.a(lib_a-mprec.o)
                0x00000000100ea0b0                __mprec_tens
 .rodata.p05.0  0x00000000100ea178        0xc /opt/gcc-arm-none-eabi-10.3-2021.10/bin/../lib/gcc/arm-none-eabi/10.3.1/../../../../arm-none-eabi/lib/thumb/v6-m/nofp/libc.a(lib_a-mprec.o)
 .rodata._setlocale_r.str1.4
                0x00000000100ea184        0x6 /opt/gcc-arm-none-eabi-10.3-2021.10/bin/../lib/gcc/arm-none-eabi/10.3.1/../../../../arm-none-eabi/lib/thumb/v6-m/nofp/libc.a(lib_a-locale.o)
                                          0xd (size before relaxing)
 *fill*         0x00000000100ea18a        0x2 
 .rodata.str1.4
                0x00000000100ea18c        0x2 /opt/gcc-arm-none-eabi-10.3-2021.10/bin/../lib/gcc/arm-none-eabi/10.3.1/../../../../arm-none-eabi/lib/thumb/v6-m/nofp/libc.a(lib_a-locale.o)
 *fill*         0x00000000100ea18e        0x2 
 .rodata._ctype_
                0x00000000100ea190      0x101 /opt/gcc-arm-none-eabi-10.3-2021.10/bin/../lib/gcc/arm-none-eabi/10.3.1/../../../../arm-none-eabi/lib/thumb/v6-m/nofp/libc.a(lib_a-ctype_.o)
                0x00000000100ea190                _ctype_
                0x00000000100ea294                . = ALIGN (0x4)
 *fill*         0x00000000100ea291        0x3 
 *(SORT_BY_ALIGNMENT(SORT_BY_NAME(.flashdata*)))
                0x00000000100ea294                . = ALIGN (0x4)

.ARM.extab
 *(.ARM.extab* .gnu.linkonce.armextab.*)
                0x00000000100ea294                __exidx_start = .

.ARM.exidx
 *(.ARM.exidx* .gnu.linkonce.armexidx.*)
                0x00000000100ea294                __exidx_end = .
                0x00000000100ea294                . = ALIGN (0x4)
                0x00000000100ea294                __binary_info_start = .

.binary_info    0x00000000100ea294       0x24
 *(.binary_info.keep.*)
 .binary_info.keep.__bi_ptr22
                0x00000000100ea294        0x4 CMakeFiles/cube_robot.dir/home/wang/pico2/pico-sdk/src/rp2_common/pico_standard_link/binary_info.c.obj
 .binary_info.keep.__bi_ptr30
                0x00000000100ea298        0x4 CMakeFiles/cube_robot.dir/home/wang/pico2/pico-sdk/src/rp2_common/pico_standard_link/binary_info.c.obj
 .binary_info.keep.__bi_ptr38
                0x00000000100ea29c        0x4 CMakeFiles/cube_robot.dir/home/wang/pico2/pico-sdk/src/rp2_common/pico_standard_link/binary_info.c.obj
 .binary_info.keep.__bi_ptr44
                0x00000000100ea2a0        0x4 CMakeFiles/cube_robot.dir/home/wang/pico2/pico-sdk/src/rp2_common/pico_standard_link/binary_info.c.obj
 .binary_info.keep.__bi_ptr50
                0x00000000100ea2a4        0x4 CMakeFiles/cube_robot.dir/home/wang/pico2/pico-sdk/src/rp2_common/pico_standard_link/binary_info.c.obj
 .binary_info.keep.__bi_ptr56
                0x00000000100ea2a8        0x4 CMakeFiles/cube_robot.dir/home/wang/pico2/pico-sdk/src/rp2_common/pico_standard_link/binary_info.c.obj
 .binary_info.keep.__bi_ptr75
                0x00000000100ea2ac        0x4 CMakeFiles/cube_robot.dir/home/wang/pico2/pico-sdk/src/rp2_common/pico_standard_link/binary_info.c.obj
 .binary_info.keep.__bi_ptr81
                0x00000000100ea2b0        0x4 CMakeFiles/cube_robot.dir/home/wang/pico2/pico-sdk/src/rp2_common/pico_standard_link/binary_info.c.obj
 *(.binary_info.*)
 .binary_info.__bi_ptr182
                0x00000000100ea2b4        0x4 CMakeFiles/cube_robot.dir/home/wang/pico2/pico-sdk/src/rp2_common/pico_stdio_usb/stdio_usb.c.obj
                0x00000000100ea2b8                __binary_info_end = .

.rel.dyn        0x00000000100ea2b8        0x0
 .rel.iplt      0x00000000100ea2b8        0x0 /opt/gcc-arm-none-eabi-10.3-2021.10/bin/../lib/gcc/arm-none-eabi/10.3.1/thumb/v6-m/nofp/crtbegin.o
                0x00000000100ea2b8                . = ALIGN (0x4)

.ram_vector_table
                0x0000000020000000       0xc0
 *(.ram_vector_table)
 .ram_vector_table
                0x0000000020000000       0xc0 CMakeFiles/cube_robot.dir/home/wang/pico2/pico-sdk/src/rp2_common/pico_runtime/runtime.c.obj
                0x0000000020000000                ram_vector_table

.data           0x00000000200000c0     0x1924 load address 0x00000000100ea2b8
                0x00000000200000c0                __data_start__ = .
 *(vtable)
 *(.time_critical*)
 .time_critical.mutex_try_enter
                0x00000000200000c0       0x44 CMakeFiles/cube_robot.dir/home/wang/pico2/pico-sdk/src/common/pico_sync/mutex.c.obj
                0x00000000200000c0                mutex_try_enter
 .time_critical.mutex_try_enter_block_until
                0x0000000020000104       0x9c CMakeFiles/cube_robot.dir/home/wang/pico2/pico-sdk/src/common/pico_sync/mutex.c.obj
                0x0000000020000104                mutex_try_enter_block_until
 .time_critical.mutex_enter_timeout_ms
                0x00000000200001a0       0x90 CMakeFiles/cube_robot.dir/home/wang/pico2/pico-sdk/src/common/pico_sync/mutex.c.obj
                0x00000000200001a0                mutex_enter_timeout_ms
 .time_critical.mutex_exit
                0x0000000020000230       0x28 CMakeFiles/cube_robot.dir/home/wang/pico2/pico-sdk/src/common/pico_sync/mutex.c.obj
                0x0000000020000230                mutex_exit
 .time_critical.flash_init_boot2_copyout
                0x0000000020000258       0x30 CMakeFiles/cube_robot.dir/home/wang/pico2/pico-sdk/src/rp2_common/hardware_flash/flash.c.obj
 .time_critical.flash_enable_xip_via_boot2
                0x0000000020000288       0x10 CMakeFiles/cube_robot.dir/home/wang/pico2/pico-sdk/src/rp2_common/hardware_flash/flash.c.obj
 .time_critical.flash_cs_force
                0x0000000020000298       0x38 CMakeFiles/cube_robot.dir/home/wang/pico2/pico-sdk/src/rp2_common/hardware_flash/flash.c.obj
 .time_critical.flash_do_cmd
                0x00000000200002d0       0xc4 CMakeFiles/cube_robot.dir/home/wang/pico2/pico-sdk/src/rp2_common/hardware_flash/flash.c.obj
                0x00000000200002d0                flash_do_cmd
 .time_critical.reset_non_control_endpoints
                0x0000000020000394       0xbc CMakeFiles/cube_robot.dir/home/wang/pico2/pico-sdk/lib/tinyusb/src/portable/raspberrypi/rp2040/dcd_rp2040.c.obj
 .time_critical.hw_handle_buff_status
                0x0000000020000450       0xa8 CMakeFiles/cube_robot.dir/home/wang/pico2/pico-sdk/lib/tinyusb/src/portable/raspberrypi/rp2040/dcd_rp2040.c.obj
 .time_critical.dcd_rp2040_irq
                0x00000000200004f8      0x4d8 CMakeFiles/cube_robot.dir/home/wang/pico2/pico-sdk/lib/tinyusb/src/portable/raspberrypi/rp2040/dcd_rp2040.c.obj
 .time_critical.e15_is_bulkin_ep
                0x00000000200009d0       0x28 CMakeFiles/cube_robot.dir/home/wang/pico2/pico-sdk/lib/tinyusb/src/portable/raspberrypi/rp2040/rp2040_usb.c.obj
 .time_critical.e15_is_critical_frame_period
                0x00000000200009f8       0x34 CMakeFiles/cube_robot.dir/home/wang/pico2/pico-sdk/lib/tinyusb/src/portable/raspberrypi/rp2040/rp2040_usb.c.obj
 .time_critical.prepare_ep_buffer
                0x0000000020000a2c       0x70 CMakeFiles/cube_robot.dir/home/wang/pico2/pico-sdk/lib/tinyusb/src/portable/raspberrypi/rp2040/rp2040_usb.c.obj
 .time_critical.sync_ep_buffer
                0x0000000020000a9c       0x4c CMakeFiles/cube_robot.dir/home/wang/pico2/pico-sdk/lib/tinyusb/src/portable/raspberrypi/rp2040/rp2040_usb.c.obj
 .time_critical._hw_endpoint_xfer_sync
                0x0000000020000ae8       0x28 CMakeFiles/cube_robot.dir/home/wang/pico2/pico-sdk/lib/tinyusb/src/portable/raspberrypi/rp2040/rp2040_usb.c.obj
 .time_critical.hw_endpoint_reset_transfer
                0x0000000020000b10        0xc CMakeFiles/cube_robot.dir/home/wang/pico2/pico-sdk/lib/tinyusb/src/portable/raspberrypi/rp2040/rp2040_usb.c.obj
                0x0000000020000b10                hw_endpoint_reset_transfer
 .time_critical._hw_endpoint_buffer_control_update32
                0x0000000020000b1c       0x58 CMakeFiles/cube_robot.dir/home/wang/pico2/pico-sdk/lib/tinyusb/src/portable/raspberrypi/rp2040/rp2040_usb.c.obj
                0x0000000020000b1c                _hw_endpoint_buffer_control_update32
 .time_critical.hw_endpoint_start_next_buffer
                0x0000000020000b74       0x6c CMakeFiles/cube_robot.dir/home/wang/pico2/pico-sdk/lib/tinyusb/src/portable/raspberrypi/rp2040/rp2040_usb.c.obj
                0x0000000020000b74                hw_endpoint_start_next_buffer
 .time_critical.hw_endpoint_xfer_continue
                0x0000000020000be0       0x50 CMakeFiles/cube_robot.dir/home/wang/pico2/pico-sdk/lib/tinyusb/src/portable/raspberrypi/rp2040/rp2040_usb.c.obj
                0x0000000020000be0                hw_endpoint_xfer_continue
 .time_critical.tinyusb
                0x0000000020000c30      0x170 CMakeFiles/cube_robot.dir/home/wang/pico2/pico-sdk/lib/tinyusb/src/device/usbd.c.obj
                0x0000000020000c30                dcd_event_handler
 *(.text*)
 .text          0x0000000020000da0        0x4 /opt/gcc-arm-none-eabi-10.3-2021.10/bin/../lib/gcc/arm-none-eabi/10.3.1/thumb/v6-m/nofp/libgcc.a(_dvmd_tls.o)
                0x0000000020000da0                __aeabi_ldiv0
                0x0000000020000da0                __aeabi_idiv0
 .text.memmove  0x0000000020000da4       0xac /opt/gcc-arm-none-eabi-10.3-2021.10/bin/../lib/gcc/arm-none-eabi/10.3.1/../../../../arm-none-eabi/lib/thumb/v6-m/nofp/libc.a(lib_a-memmove.o)
                0x0000000020000da4                memmove
 .text.memchr   0x0000000020000e50       0x74 /opt/gcc-arm-none-eabi-10.3-2021.10/bin/../lib/gcc/arm-none-eabi/10.3.1/../../../../arm-none-eabi/lib/thumb/v6-m/nofp/libc.a(lib_a-memchr-stub.o)
                0x0000000020000e50                memchr
 *fill*         0x0000000020000ec4        0x4 
 .text.memchr.__stub
                0x0000000020000ec8       0x70 linker stubs
                0x0000000020000f38                . = ALIGN (0x4)
 *(.rodata*)
                0x0000000020000f38                . = ALIGN (0x4)
 *(.data*)
 .data.striped_spin_lock_num
                0x0000000020000f38        0x1 CMakeFiles/cube_robot.dir/home/wang/pico2/pico-sdk/src/rp2_common/hardware_sync/sync.c.obj
 *fill*         0x0000000020000f39        0x3 
 .data          0x0000000020000f3c       0x48 CMakeFiles/cube_robot.dir/home/wang/pico2/pico-sdk/src/rp2_common/hardware_irq/irq_handler_chain.S.obj
                0x0000000020000f3c                irq_handler_chain_slots
                0x0000000020000f6c                irq_handler_chain_first_slot
                0x0000000020000f76                irq_handler_chain_remove_tail
 .data.default_alarm_pool
                0x0000000020000f84       0x18 CMakeFiles/cube_robot.dir/home/wang/pico2/pico-sdk/src/common/pico_time/time.c.obj
 .data.default_alarm_pool_heap
                0x0000000020000f9c       0x10 CMakeFiles/cube_robot.dir/home/wang/pico2/pico-sdk/src/common/pico_time/time.c.obj
 *fill*         0x0000000020000fac        0x4 
 .data.aeabi_bits_funcs
                0x0000000020000fb0       0x10 CMakeFiles/cube_robot.dir/home/wang/pico2/pico-sdk/src/rp2_common/pico_bit_ops/bit_ops_aeabi.S.obj
                0x0000000020000fb0                aeabi_bits_funcs
                0x0000000020000fc0                aeabi_bits_funcs_end
 .data.aeabi_mem_funcs
                0x0000000020000fc0       0x10 CMakeFiles/cube_robot.dir/home/wang/pico2/pico-sdk/src/rp2_common/pico_mem_ops/mem_ops_aeabi.S.obj
                0x0000000020000fc0                aeabi_mem_funcs
                0x0000000020000fd0                aeabi_mem_funcs_end
 .data.stdio_usb
                0x0000000020000fd0       0x18 CMakeFiles/cube_robot.dir/home/wang/pico2/pico-sdk/src/rp2_common/pico_stdio_usb/stdio_usb.c.obj
                0x0000000020000fd0                stdio_usb
 .data.ep_dir_string
                0x0000000020000fe8        0x8 CMakeFiles/cube_robot.dir/home/wang/pico2/pico-sdk/lib/tinyusb/src/portable/raspberrypi/rp2040/rp2040_usb.c.obj
                0x0000000020000fe8                ep_dir_string
 .data._usbd_qdef
                0x0000000020000ff0       0x1c CMakeFiles/cube_robot.dir/home/wang/pico2/pico-sdk/lib/tinyusb/src/device/usbd.c.obj
                0x0000000020000ff0                _usbd_qdef
 .data._usbd_rhport
                0x000000002000100c        0x1 CMakeFiles/cube_robot.dir/home/wang/pico2/pico-sdk/lib/tinyusb/src/device/usbd.c.obj
 *fill*         0x000000002000100d        0x3 
 .data._impure_ptr
                0x0000000020001010        0x4 /opt/gcc-arm-none-eabi-10.3-2021.10/bin/../lib/gcc/arm-none-eabi/10.3.1/../../../../arm-none-eabi/lib/thumb/v6-m/nofp/libc.a(lib_a-impure.o)
                0x0000000020001010                _impure_ptr
 *fill*         0x0000000020001014        0x4 
 .data.impure_data
                0x0000000020001018      0x428 /opt/gcc-arm-none-eabi-10.3-2021.10/bin/../lib/gcc/arm-none-eabi/10.3.1/../../../../arm-none-eabi/lib/thumb/v6-m/nofp/libc.a(lib_a-impure.o)
 .data.__malloc_av_
                0x0000000020001440      0x408 /opt/gcc-arm-none-eabi-10.3-2021.10/bin/../lib/gcc/arm-none-eabi/10.3.1/../../../../arm-none-eabi/lib/thumb/v6-m/nofp/libc.a(lib_a-mallocr.o)
                0x0000000020001440                __malloc_av_
 .data.__malloc_sbrk_base
                0x0000000020001848        0x4 /opt/gcc-arm-none-eabi-10.3-2021.10/bin/../lib/gcc/arm-none-eabi/10.3.1/../../../../arm-none-eabi/lib/thumb/v6-m/nofp/libc.a(lib_a-mallocr.o)
                0x0000000020001848                __malloc_sbrk_base
 .data.__malloc_trim_threshold
                0x000000002000184c        0x4 /opt/gcc-arm-none-eabi-10.3-2021.10/bin/../lib/gcc/arm-none-eabi/10.3.1/../../../../arm-none-eabi/lib/thumb/v6-m/nofp/libc.a(lib_a-mallocr.o)
                0x000000002000184c                __malloc_trim_threshold
 .data.__global_locale
                0x0000000020001850      0x16c /opt/gcc-arm-none-eabi-10.3-2021.10/bin/../lib/gcc/arm-none-eabi/10.3.1/../../../../arm-none-eabi/lib/thumb/v6-m/nofp/libc.a(lib_a-locale.o)
                0x0000000020001850                __global_locale
                0x00000000200019bc                . = ALIGN (0x4)
 *(.after_data.*)
                0x00000000200019bc                . = ALIGN (0x4)
                0x00000000200019bc                PROVIDE (__mutex_array_start = .)
 *(SORT_BY_NAME(.mutex_array.*))
 *(.mutex_array)
 .mutex_array   0x00000000200019bc        0x8 CMakeFiles/cube_robot.dir/home/wang/pico2/pico-sdk/src/rp2_common/pico_malloc/pico_malloc.c.obj
 .mutex_array   0x00000000200019c4        0x8 CMakeFiles/cube_robot.dir/home/wang/pico2/pico-sdk/src/rp2_common/pico_stdio/stdio.c.obj
                0x00000000200019cc                PROVIDE (__mutex_array_end = .)
                0x00000000200019cc                . = ALIGN (0x4)
                0x00000000200019cc                PROVIDE (__preinit_array_start = .)
 *(SORT_BY_NAME(.preinit_array.*))
 .preinit_array.00001
                0x00000000200019cc        0x4 CMakeFiles/cube_robot.dir/home/wang/pico2/pico-sdk/src/rp2_common/pico_mem_ops/mem_ops_aeabi.S.obj
 .preinit_array.00010
                0x00000000200019d0        0x4 CMakeFiles/cube_robot.dir/home/wang/pico2/pico-sdk/src/rp2_common/pico_bit_ops/bit_ops_aeabi.S.obj
 .preinit_array.00020
                0x00000000200019d4        0x4 CMakeFiles/cube_robot.dir/home/wang/pico2/pico-sdk/src/rp2_common/pico_double/double_aeabi.S.obj
 .preinit_array.00020
                0x00000000200019d8        0x4 CMakeFiles/cube_robot.dir/home/wang/pico2/pico-sdk/src/rp2_common/pico_float/float_aeabi.S.obj
 *(.preinit_array)
                0x00000000200019dc                PROVIDE (__preinit_array_end = .)
                0x00000000200019dc                . = ALIGN (0x4)
                0x00000000200019dc                PROVIDE (__init_array_start = .)
 *(SORT_BY_NAME(.init_array.*))
 *(.init_array)
 .init_array    0x00000000200019dc        0x4 /opt/gcc-arm-none-eabi-10.3-2021.10/bin/../lib/gcc/arm-none-eabi/10.3.1/thumb/v6-m/nofp/crtbegin.o
 .init_array    0x00000000200019e0        0x4 CMakeFiles/cube_robot.dir/home/wang/pico2/pico-sdk/src/rp2_common/pico_unique_id/unique_id.c.obj
                0x00000000200019e4                PROVIDE (__init_array_end = .)
                0x00000000200019e4                . = ALIGN (0x4)
                [!provide]                        PROVIDE (__fini_array_start = .)
 *(SORT_BY_NAME(.fini_array.*))
 *(.fini_array)
                [!provide]                        PROVIDE (__fini_array_end = .)
 *(.jcr)
                0x00000000200019e4                . = ALIGN (0x4)
                0x00000000200019e4                __data_end__ = .
                0x00000000100ea2b8                __etext = LOADADDR (.data)

.igot.plt       0x00000000200019e4        0x0 load address 0x00000000100ebbdc
 .igot.plt      0x00000000200019e4        0x0 /opt/gcc-arm-none-eabi-10.3-2021.10/bin/../lib/gcc/arm-none-eabi/10.3.1/thumb/v6-m/nofp/crtbegin.o

.uninitialized_data
                0x00000000200019e4        0x0 load address 0x00000000100ebbdc
                0x00000000200019e4                . = ALIGN (0x4)
 *(.uninitialized_data*)

.scratch_x      0x0000000020040000        0x0 load address 0x00000000100ebbdc
                0x0000000020040000                __scratch_x_start__ = .
 *(.scratch_x.*)
                0x0000000020040000                . = ALIGN (0x4)
                0x0000000020040000                __scratch_x_end__ = .
                0x00000000100ebbdc                __scratch_x_source__ = LOADADDR (.scratch_x)

.scratch_y      0x0000000020041000        0x0 load address 0x00000000100ebbdc
                0x0000000020041000                __scratch_y_start__ = .
 *(.scratch_y.*)
                0x0000000020041000                . = ALIGN (0x4)
                0x0000000020041000                __scratch_y_end__ = .
                0x00000000100ebbdc                __scratch_y_source__ = LOADADDR (.scratch_y)

.bss            0x00000000200019e8     0x3e24
                0x00000000200019e8                . = ALIGN (0x4)
                0x00000000200019e8                __bss_start__ = .
 *(SORT_BY_ALIGNMENT(SORT_BY_NAME(.bss*)))
 .bss.default_alarm_pool_entries
                0x00000000200019e8      0x100 CMakeFiles/cube_robot.dir/home/wang/pico2/pico-sdk/src/common/pico_time/time.c.obj
 .bss.last_avail_time.1
                0x0000000020001ae8        0x8 CMakeFiles/cube_robot.dir/home/wang/pico2/pico-sdk/src/rp2_common/pico_stdio_usb/stdio_usb.c.obj
 .bss.sd_table  0x0000000020001af0      0x100 CMakeFiles/cube_robot.dir/home/wang/pico2/pico-sdk/src/rp2_common/pico_double/double_init_rom.c.obj
                0x0000000020001af0                sd_table
 .bss.sf_table  0x0000000020001bf0      0x100 CMakeFiles/cube_robot.dir/home/wang/pico2/pico-sdk/src/rp2_common/pico_float/float_init_rom.c.obj
                0x0000000020001bf0                sf_table
 .bss           0x0000000020001cf0       0x1c /opt/gcc-arm-none-eabi-10.3-2021.10/bin/../lib/gcc/arm-none-eabi/10.3.1/thumb/v6-m/nofp/crtbegin.o
 .bss.OLED_DisplayBuf
                0x0000000020001d0c      0x400 CMakeFiles/cube_robot.dir/OLED.c.obj
                0x0000000020001d0c                OLED_DisplayBuf
 .bss.__lock___malloc_recursive_mutex
                0x000000002000210c        0x1 /opt/gcc-arm-none-eabi-10.3-2021.10/bin/../lib/gcc/arm-none-eabi/10.3.1/../../../../arm-none-eabi/lib/thumb/v6-m/nofp/libc.a(lib_a-lock.o)
                0x000000002000210c                __lock___malloc_recursive_mutex
 *fill*         0x000000002000210d        0x3 
 .bss.__malloc_current_mallinfo
                0x0000000020002110       0x28 /opt/gcc-arm-none-eabi-10.3-2021.10/bin/../lib/gcc/arm-none-eabi/10.3.1/../../../../arm-none-eabi/lib/thumb/v6-m/nofp/libc.a(lib_a-mallocr.o)
                0x0000000020002110                __malloc_current_mallinfo
 .bss.__malloc_max_sbrked_mem
                0x0000000020002138        0x4 /opt/gcc-arm-none-eabi-10.3-2021.10/bin/../lib/gcc/arm-none-eabi/10.3.1/../../../../arm-none-eabi/lib/thumb/v6-m/nofp/libc.a(lib_a-mallocr.o)
                0x0000000020002138                __malloc_max_sbrked_mem
 .bss.__malloc_max_total_mem
                0x000000002000213c        0x4 /opt/gcc-arm-none-eabi-10.3-2021.10/bin/../lib/gcc/arm-none-eabi/10.3.1/../../../../arm-none-eabi/lib/thumb/v6-m/nofp/libc.a(lib_a-mallocr.o)
                0x000000002000213c                __malloc_max_total_mem
 .bss.__malloc_top_pad
                0x0000000020002140        0x4 /opt/gcc-arm-none-eabi-10.3-2021.10/bin/../lib/gcc/arm-none-eabi/10.3.1/../../../../arm-none-eabi/lib/thumb/v6-m/nofp/libc.a(lib_a-mallocr.o)
                0x0000000020002140                __malloc_top_pad
 .bss._app_driver
                0x0000000020002144        0x4 CMakeFiles/cube_robot.dir/home/wang/pico2/pico-sdk/lib/tinyusb/src/device/usbd.c.obj
 .bss._cdcd_itf
                0x0000000020002148      0x2c8 CMakeFiles/cube_robot.dir/home/wang/pico2/pico-sdk/lib/tinyusb/src/class/cdc/cdc_device.c.obj
 .bss._ctrl_xfer
                0x0000000020002410       0x14 CMakeFiles/cube_robot.dir/home/wang/pico2/pico-sdk/lib/tinyusb/src/device/usbd_control.c.obj
 .bss._ubsd_mutexdef
                0x0000000020002424        0x8 CMakeFiles/cube_robot.dir/home/wang/pico2/pico-sdk/lib/tinyusb/src/device/usbd.c.obj
 .bss._usbd_ctrl_buf
                0x000000002000242c       0x40 CMakeFiles/cube_robot.dir/home/wang/pico2/pico-sdk/lib/tinyusb/src/device/usbd_control.c.obj
 .bss._usbd_dev
                0x000000002000246c       0x53 CMakeFiles/cube_robot.dir/home/wang/pico2/pico-sdk/lib/tinyusb/src/device/usbd.c.obj
 *fill*         0x00000000200024bf        0x1 
 .bss._usbd_mutex
                0x00000000200024c0        0x4 CMakeFiles/cube_robot.dir/home/wang/pico2/pico-sdk/lib/tinyusb/src/device/usbd.c.obj
 .bss._usbd_q   0x00000000200024c4        0x4 CMakeFiles/cube_robot.dir/home/wang/pico2/pico-sdk/lib/tinyusb/src/device/usbd.c.obj
 .bss._usbd_qdef_buf
                0x00000000200024c8       0xc0 CMakeFiles/cube_robot.dir/home/wang/pico2/pico-sdk/lib/tinyusb/src/device/usbd.c.obj
                0x00000000200024c8                _usbd_qdef_buf
 .bss.alarm_callbacks
                0x0000000020002588       0x10 CMakeFiles/cube_robot.dir/home/wang/pico2/pico-sdk/src/rp2_common/hardware_timer/timer.c.obj
 .bss.boot2_copyout
                0x0000000020002598      0x100 CMakeFiles/cube_robot.dir/home/wang/pico2/pico-sdk/src/rp2_common/hardware_flash/flash.c.obj
 .bss.chars_available_callback
                0x0000000020002698        0x4 CMakeFiles/cube_robot.dir/home/wang/pico2/pico-sdk/src/rp2_common/pico_stdio_usb/stdio_usb.c.obj
 .bss.chars_available_param
                0x000000002000269c        0x4 CMakeFiles/cube_robot.dir/home/wang/pico2/pico-sdk/src/rp2_common/pico_stdio_usb/stdio_usb.c.obj
 .bss.claimed   0x00000000200026a0        0x4 CMakeFiles/cube_robot.dir/home/wang/pico2/pico-sdk/src/rp2_common/hardware_sync/sync.c.obj
 .bss.color_buffer
                0x00000000200026a4      0x144 CMakeFiles/cube_robot.dir/cube_robot.c.obj
                0x00000000200026a4                color_buffer
 .bss.configured_freq
                0x00000000200027e8       0x28 CMakeFiles/cube_robot.dir/home/wang/pico2/pico-sdk/src/rp2_common/hardware_clocks/clocks.c.obj
 .bss.cube_stack
                0x0000000020002810     0x2a00 CMakeFiles/cube_robot.dir/solve.c.obj
                0x0000000020002810                cube_stack
 .bss.cube_str  0x0000000020005210       0x37 CMakeFiles/cube_robot.dir/cube_robot.c.obj
                0x0000000020005210                cube_str
 *fill*         0x0000000020005247        0x1 
 .bss.default_alarm_pool_entry_ids_high
                0x0000000020005248       0x10 CMakeFiles/cube_robot.dir/home/wang/pico2/pico-sdk/src/common/pico_time/time.c.obj
 .bss.default_alarm_pool_heap_nodes
                0x0000000020005258       0x30 CMakeFiles/cube_robot.dir/home/wang/pico2/pico-sdk/src/common/pico_time/time.c.obj
 .bss.desc_str.0
                0x0000000020005288       0x28 CMakeFiles/cube_robot.dir/home/wang/pico2/pico-sdk/src/rp2_common/pico_stdio_usb/stdio_usb_descriptors.c.obj
 .bss.drivers   0x00000000200052b0        0x4 CMakeFiles/cube_robot.dir/home/wang/pico2/pico-sdk/src/rp2_common/pico_stdio/stdio.c.obj
 .bss.e15_last_sof
                0x00000000200052b4        0x4 CMakeFiles/cube_robot.dir/home/wang/pico2/pico-sdk/lib/tinyusb/src/portable/raspberrypi/rp2040/rp2040_usb.c.obj
                0x00000000200052b4                e15_last_sof
 .bss.errno     0x00000000200052b8        0x4 /opt/gcc-arm-none-eabi-10.3-2021.10/bin/../lib/gcc/arm-none-eabi/10.3.1/../../../../arm-none-eabi/lib/thumb/v6-m/nofp/libc.a(lib_a-reent.o)
                0x00000000200052b8                errno
 .bss.filter    0x00000000200052bc        0x4 CMakeFiles/cube_robot.dir/home/wang/pico2/pico-sdk/src/rp2_common/pico_stdio/stdio.c.obj
 .bss.heap_end.0
                0x00000000200052c0        0x4 CMakeFiles/cube_robot.dir/home/wang/pico2/pico-sdk/src/rp2_common/pico_runtime/runtime.c.obj
 .bss.hw_endpoints
                0x00000000200052c4      0x400 CMakeFiles/cube_robot.dir/home/wang/pico2/pico-sdk/lib/tinyusb/src/portable/raspberrypi/rp2040/dcd_rp2040.c.obj
 .bss.lazy_vsnprintf
                0x00000000200056c4        0x4 CMakeFiles/cube_robot.dir/home/wang/pico2/pico-sdk/src/rp2_common/pico_printf/printf.c.obj
 .bss.load_value
                0x00000000200056c8        0x4 CMakeFiles/cube_robot.dir/home/wang/pico2/pico-sdk/src/rp2_common/hardware_watchdog/watchdog.c.obj
 .bss.next_buffer_ptr
                0x00000000200056cc        0x4 CMakeFiles/cube_robot.dir/home/wang/pico2/pico-sdk/lib/tinyusb/src/portable/raspberrypi/rp2040/dcd_rp2040.c.obj
 .bss.one_shot_timer_crit_sec
                0x00000000200056d0        0x8 CMakeFiles/cube_robot.dir/home/wang/pico2/pico-sdk/src/rp2_common/pico_stdio_usb/stdio_usb.c.obj
 .bss.pools     0x00000000200056d8       0x10 CMakeFiles/cube_robot.dir/home/wang/pico2/pico-sdk/src/common/pico_time/time.c.obj
 .bss.retrieved_id
                0x00000000200056e8        0x8 CMakeFiles/cube_robot.dir/home/wang/pico2/pico-sdk/src/rp2_common/pico_unique_id/unique_id.c.obj
 .bss.sf_clz_func
                0x00000000200056f0        0x4 CMakeFiles/cube_robot.dir/home/wang/pico2/pico-sdk/src/rp2_common/pico_double/double_init_rom.c.obj
                0x00000000200056f0                sf_clz_func
 .bss.sleep_notifier
                0x00000000200056f4        0x4 CMakeFiles/cube_robot.dir/home/wang/pico2/pico-sdk/src/common/pico_time/time.c.obj
 .bss.solution_str
                0x00000000200056f8       0xdc CMakeFiles/cube_robot.dir/cube_robot.c.obj
                0x00000000200056f8                solution_str
 .bss.solve_color_flag
                0x00000000200057d4        0x4 CMakeFiles/cube_robot.dir/cube_robot.c.obj
                0x00000000200057d4                solve_color_flag
 .bss.stdio_usb_mutex
                0x00000000200057d8        0x8 CMakeFiles/cube_robot.dir/home/wang/pico2/pico-sdk/src/rp2_common/pico_stdio_usb/stdio_usb.c.obj
 .bss.target_hi
                0x00000000200057e0       0x10 CMakeFiles/cube_robot.dir/home/wang/pico2/pico-sdk/src/rp2_common/hardware_timer/timer.c.obj
 .bss.usbd_serial_str
                0x00000000200057f0       0x11 CMakeFiles/cube_robot.dir/home/wang/pico2/pico-sdk/src/rp2_common/pico_stdio_usb/stdio_usb_descriptors.c.obj
 .bss._app_driver_count
                0x0000000020005801        0x1 CMakeFiles/cube_robot.dir/home/wang/pico2/pico-sdk/lib/tinyusb/src/device/usbd.c.obj
 .bss._sof_enable
                0x0000000020005802        0x1 CMakeFiles/cube_robot.dir/home/wang/pico2/pico-sdk/lib/tinyusb/src/portable/raspberrypi/rp2040/dcd_rp2040.c.obj
 .bss.boot2_copyout_valid
                0x0000000020005803        0x1 CMakeFiles/cube_robot.dir/home/wang/pico2/pico-sdk/src/rp2_common/hardware_flash/flash.c.obj
 .bss.claimed   0x0000000020005804        0x1 CMakeFiles/cube_robot.dir/home/wang/pico2/pico-sdk/src/rp2_common/hardware_timer/timer.c.obj
 .bss.irq_hander_chain_free_slot_head
                0x0000000020005805        0x1 CMakeFiles/cube_robot.dir/home/wang/pico2/pico-sdk/src/rp2_common/hardware_irq/irq.c.obj
 .bss.itf_num   0x0000000020005806        0x1 CMakeFiles/cube_robot.dir/home/wang/pico2/pico-sdk/src/rp2_common/pico_stdio_usb/reset_interface.c.obj
 .bss.low_priority_irq_num
                0x0000000020005807        0x1 CMakeFiles/cube_robot.dir/home/wang/pico2/pico-sdk/src/rp2_common/pico_stdio_usb/stdio_usb.c.obj
 .bss.one_shot_timer_pending
                0x0000000020005808        0x1 CMakeFiles/cube_robot.dir/home/wang/pico2/pico-sdk/src/rp2_common/pico_stdio_usb/stdio_usb.c.obj
 .bss.timer_callbacks_pending
                0x0000000020005809        0x1 CMakeFiles/cube_robot.dir/home/wang/pico2/pico-sdk/src/rp2_common/hardware_timer/timer.c.obj
 .bss.user_irq_claimed
                0x000000002000580a        0x1 CMakeFiles/cube_robot.dir/home/wang/pico2/pico-sdk/src/rp2_common/hardware_irq/irq.c.obj
 *(COMMON)
                0x000000002000580c                . = ALIGN (0x4)
 *fill*         0x000000002000580b        0x1 
                0x000000002000580c                __bss_end__ = .

.heap           0x000000002000580c      0x800
                0x000000002000580c                __end__ = .
                0x000000002000580c                end = __end__
 *(.heap*)
 .heap          0x000000002000580c      0x800 CMakeFiles/cube_robot.dir/home/wang/pico2/pico-sdk/src/rp2_common/pico_standard_link/crt0.S.obj
                0x000000002000600c                __HeapLimit = .

.stack1_dummy   0x0000000020040000      0x800
 *(.stack1*)
 .stack1        0x0000000020040000      0x800 CMakeFiles/cube_robot.dir/home/wang/pico2/pico-sdk/src/rp2_common/pico_multicore/multicore.c.obj

.stack_dummy    0x0000000020041000      0x800
 *(.stack*)
 .stack         0x0000000020041000      0x800 CMakeFiles/cube_robot.dir/home/wang/pico2/pico-sdk/src/rp2_common/pico_standard_link/crt0.S.obj

.flash_end      0x00000000100ebbdc        0x0
                0x00000000100ebbdc                PROVIDE (__flash_binary_end = .)
                0x0000000020040000                __StackLimit = (ORIGIN (RAM) + LENGTH (RAM))
                0x0000000020041000                __StackOneTop = (ORIGIN (SCRATCH_X) + LENGTH (SCRATCH_X))
                0x0000000020042000                __StackTop = (ORIGIN (SCRATCH_Y) + LENGTH (SCRATCH_Y))
                0x0000000020040800                __StackOneBottom = (__StackOneTop - SIZEOF (.stack1_dummy))
                0x0000000020041800                __StackBottom = (__StackTop - SIZEOF (.stack_dummy))
                0x0000000020042000                PROVIDE (__stack = __StackTop)
                0x0000000000000001                ASSERT ((__StackLimit >= __HeapLimit), region RAM overflowed)
                0x0000000000000001                ASSERT (((__binary_info_header_end - __logical_binary_start) <= 0x100), Binary info must be in first 256 bytes of the binary)
LOAD CMakeFiles/cube_robot.dir/cube_robot.c.obj
LOAD CMakeFiles/cube_robot.dir/color_detect.c.obj
LOAD CMakeFiles/cube_robot.dir/prun_table.c.obj
LOAD CMakeFiles/cube_robot.dir/solve.c.obj
LOAD CMakeFiles/cube_robot.dir/OLED.c.obj
LOAD CMakeFiles/cube_robot.dir/OLED_Data.c.obj
LOAD CMakeFiles/cube_robot.dir/home/wang/pico2/pico-sdk/src/rp2_common/pico_stdlib/stdlib.c.obj
LOAD CMakeFiles/cube_robot.dir/home/wang/pico2/pico-sdk/src/rp2_common/hardware_gpio/gpio.c.obj
LOAD CMakeFiles/cube_robot.dir/home/wang/pico2/pico-sdk/src/rp2_common/pico_platform/platform.c.obj
LOAD CMakeFiles/cube_robot.dir/home/wang/pico2/pico-sdk/src/rp2_common/hardware_claim/claim.c.obj
LOAD CMakeFiles/cube_robot.dir/home/wang/pico2/pico-sdk/src/rp2_common/hardware_sync/sync.c.obj
LOAD CMakeFiles/cube_robot.dir/home/wang/pico2/pico-sdk/src/rp2_common/hardware_irq/irq.c.obj
LOAD CMakeFiles/cube_robot.dir/home/wang/pico2/pico-sdk/src/rp2_common/hardware_irq/irq_handler_chain.S.obj
LOAD CMakeFiles/cube_robot.dir/home/wang/pico2/pico-sdk/src/common/pico_sync/sem.c.obj
LOAD CMakeFiles/cube_robot.dir/home/wang/pico2/pico-sdk/src/common/pico_sync/lock_core.c.obj
LOAD CMakeFiles/cube_robot.dir/home/wang/pico2/pico-sdk/src/common/pico_sync/mutex.c.obj
LOAD CMakeFiles/cube_robot.dir/home/wang/pico2/pico-sdk/src/common/pico_sync/critical_section.c.obj
LOAD CMakeFiles/cube_robot.dir/home/wang/pico2/pico-sdk/src/common/pico_time/time.c.obj
LOAD CMakeFiles/cube_robot.dir/home/wang/pico2/pico-sdk/src/common/pico_time/timeout_helper.c.obj
LOAD CMakeFiles/cube_robot.dir/home/wang/pico2/pico-sdk/src/rp2_common/hardware_timer/timer.c.obj
LOAD CMakeFiles/cube_robot.dir/home/wang/pico2/pico-sdk/src/common/pico_util/datetime.c.obj
LOAD CMakeFiles/cube_robot.dir/home/wang/pico2/pico-sdk/src/common/pico_util/pheap.c.obj
LOAD CMakeFiles/cube_robot.dir/home/wang/pico2/pico-sdk/src/common/pico_util/queue.c.obj
LOAD CMakeFiles/cube_robot.dir/home/wang/pico2/pico-sdk/src/rp2_common/hardware_uart/uart.c.obj
LOAD CMakeFiles/cube_robot.dir/home/wang/pico2/pico-sdk/src/rp2_common/hardware_clocks/clocks.c.obj
LOAD CMakeFiles/cube_robot.dir/home/wang/pico2/pico-sdk/src/rp2_common/hardware_pll/pll.c.obj
LOAD CMakeFiles/cube_robot.dir/home/wang/pico2/pico-sdk/src/rp2_common/hardware_vreg/vreg.c.obj
LOAD CMakeFiles/cube_robot.dir/home/wang/pico2/pico-sdk/src/rp2_common/hardware_watchdog/watchdog.c.obj
LOAD CMakeFiles/cube_robot.dir/home/wang/pico2/pico-sdk/src/rp2_common/hardware_xosc/xosc.c.obj
LOAD CMakeFiles/cube_robot.dir/home/wang/pico2/pico-sdk/src/rp2_common/hardware_divider/divider.S.obj
LOAD CMakeFiles/cube_robot.dir/home/wang/pico2/pico-sdk/src/rp2_common/pico_runtime/runtime.c.obj
LOAD CMakeFiles/cube_robot.dir/home/wang/pico2/pico-sdk/src/rp2_common/pico_printf/printf.c.obj
LOAD CMakeFiles/cube_robot.dir/home/wang/pico2/pico-sdk/src/rp2_common/pico_bit_ops/bit_ops_aeabi.S.obj
LOAD CMakeFiles/cube_robot.dir/home/wang/pico2/pico-sdk/src/rp2_common/pico_bootrom/bootrom.c.obj
LOAD CMakeFiles/cube_robot.dir/home/wang/pico2/pico-sdk/src/rp2_common/pico_divider/divider.S.obj
LOAD CMakeFiles/cube_robot.dir/home/wang/pico2/pico-sdk/src/rp2_common/pico_double/double_aeabi.S.obj
LOAD CMakeFiles/cube_robot.dir/home/wang/pico2/pico-sdk/src/rp2_common/pico_double/double_init_rom.c.obj
LOAD CMakeFiles/cube_robot.dir/home/wang/pico2/pico-sdk/src/rp2_common/pico_double/double_math.c.obj
LOAD CMakeFiles/cube_robot.dir/home/wang/pico2/pico-sdk/src/rp2_common/pico_double/double_v1_rom_shim.S.obj
LOAD CMakeFiles/cube_robot.dir/home/wang/pico2/pico-sdk/src/rp2_common/pico_int64_ops/pico_int64_ops_aeabi.S.obj
LOAD CMakeFiles/cube_robot.dir/home/wang/pico2/pico-sdk/src/rp2_common/pico_float/float_aeabi.S.obj
LOAD CMakeFiles/cube_robot.dir/home/wang/pico2/pico-sdk/src/rp2_common/pico_float/float_init_rom.c.obj
LOAD CMakeFiles/cube_robot.dir/home/wang/pico2/pico-sdk/src/rp2_common/pico_float/float_math.c.obj
LOAD CMakeFiles/cube_robot.dir/home/wang/pico2/pico-sdk/src/rp2_common/pico_float/float_v1_rom_shim.S.obj
LOAD CMakeFiles/cube_robot.dir/home/wang/pico2/pico-sdk/src/rp2_common/pico_malloc/pico_malloc.c.obj
LOAD CMakeFiles/cube_robot.dir/home/wang/pico2/pico-sdk/src/rp2_common/pico_mem_ops/mem_ops_aeabi.S.obj
LOAD CMakeFiles/cube_robot.dir/home/wang/pico2/pico-sdk/src/rp2_common/pico_standard_link/crt0.S.obj
LOAD CMakeFiles/cube_robot.dir/home/wang/pico2/pico-sdk/src/rp2_common/pico_standard_link/new_delete.cpp.obj
LOAD CMakeFiles/cube_robot.dir/home/wang/pico2/pico-sdk/src/rp2_common/pico_standard_link/binary_info.c.obj
LOAD CMakeFiles/cube_robot.dir/home/wang/pico2/pico-sdk/src/rp2_common/pico_stdio/stdio.c.obj
LOAD CMakeFiles/cube_robot.dir/home/wang/pico2/pico-sdk/src/rp2_common/pico_stdio_usb/reset_interface.c.obj
LOAD CMakeFiles/cube_robot.dir/home/wang/pico2/pico-sdk/src/rp2_common/pico_stdio_usb/stdio_usb.c.obj
LOAD CMakeFiles/cube_robot.dir/home/wang/pico2/pico-sdk/src/rp2_common/pico_stdio_usb/stdio_usb_descriptors.c.obj
LOAD CMakeFiles/cube_robot.dir/home/wang/pico2/pico-sdk/src/rp2_common/pico_unique_id/unique_id.c.obj
LOAD CMakeFiles/cube_robot.dir/home/wang/pico2/pico-sdk/src/rp2_common/hardware_flash/flash.c.obj
LOAD CMakeFiles/cube_robot.dir/home/wang/pico2/pico-sdk/lib/tinyusb/src/portable/raspberrypi/rp2040/dcd_rp2040.c.obj
LOAD CMakeFiles/cube_robot.dir/home/wang/pico2/pico-sdk/lib/tinyusb/src/portable/raspberrypi/rp2040/rp2040_usb.c.obj
LOAD CMakeFiles/cube_robot.dir/home/wang/pico2/pico-sdk/lib/tinyusb/src/device/usbd.c.obj
LOAD CMakeFiles/cube_robot.dir/home/wang/pico2/pico-sdk/lib/tinyusb/src/device/usbd_control.c.obj
LOAD CMakeFiles/cube_robot.dir/home/wang/pico2/pico-sdk/lib/tinyusb/src/class/audio/audio_device.c.obj
LOAD CMakeFiles/cube_robot.dir/home/wang/pico2/pico-sdk/lib/tinyusb/src/class/cdc/cdc_device.c.obj
LOAD CMakeFiles/cube_robot.dir/home/wang/pico2/pico-sdk/lib/tinyusb/src/class/dfu/dfu_device.c.obj
LOAD CMakeFiles/cube_robot.dir/home/wang/pico2/pico-sdk/lib/tinyusb/src/class/dfu/dfu_rt_device.c.obj
LOAD CMakeFiles/cube_robot.dir/home/wang/pico2/pico-sdk/lib/tinyusb/src/class/hid/hid_device.c.obj
LOAD CMakeFiles/cube_robot.dir/home/wang/pico2/pico-sdk/lib/tinyusb/src/class/midi/midi_device.c.obj
LOAD CMakeFiles/cube_robot.dir/home/wang/pico2/pico-sdk/lib/tinyusb/src/class/msc/msc_device.c.obj
LOAD CMakeFiles/cube_robot.dir/home/wang/pico2/pico-sdk/lib/tinyusb/src/class/net/ecm_rndis_device.c.obj
LOAD CMakeFiles/cube_robot.dir/home/wang/pico2/pico-sdk/lib/tinyusb/src/class/net/ncm_device.c.obj
LOAD CMakeFiles/cube_robot.dir/home/wang/pico2/pico-sdk/lib/tinyusb/src/class/usbtmc/usbtmc_device.c.obj
LOAD CMakeFiles/cube_robot.dir/home/wang/pico2/pico-sdk/lib/tinyusb/src/class/vendor/vendor_device.c.obj
LOAD CMakeFiles/cube_robot.dir/home/wang/pico2/pico-sdk/lib/tinyusb/src/class/video/video_device.c.obj
LOAD CMakeFiles/cube_robot.dir/home/wang/pico2/pico-sdk/lib/tinyusb/src/tusb.c.obj
LOAD CMakeFiles/cube_robot.dir/home/wang/pico2/pico-sdk/lib/tinyusb/src/common/tusb_fifo.c.obj
LOAD CMakeFiles/cube_robot.dir/home/wang/pico2/pico-sdk/src/rp2_common/pico_fix/rp2040_usb_device_enumeration/rp2040_usb_device_enumeration.c.obj
LOAD CMakeFiles/cube_robot.dir/home/wang/pico2/pico-sdk/src/rp2_common/pico_multicore/multicore.c.obj
LOAD /tmp/ccOLAkFo.o
LOAD /opt/gcc-arm-none-eabi-10.3-2021.10/bin/../lib/gcc/arm-none-eabi/10.3.1/../../../../arm-none-eabi/lib/thumb/v6-m/nofp/libstdc++.a
LOAD /opt/gcc-arm-none-eabi-10.3-2021.10/bin/../lib/gcc/arm-none-eabi/10.3.1/../../../../arm-none-eabi/lib/thumb/v6-m/nofp/libm.a
START GROUP
LOAD /opt/gcc-arm-none-eabi-10.3-2021.10/bin/../lib/gcc/arm-none-eabi/10.3.1/thumb/v6-m/nofp/libgcc.a
LOAD /opt/gcc-arm-none-eabi-10.3-2021.10/bin/../lib/gcc/arm-none-eabi/10.3.1/../../../../arm-none-eabi/lib/thumb/v6-m/nofp/libc.a
END GROUP
START GROUP
LOAD /opt/gcc-arm-none-eabi-10.3-2021.10/bin/../lib/gcc/arm-none-eabi/10.3.1/thumb/v6-m/nofp/libgcc.a
LOAD /opt/gcc-arm-none-eabi-10.3-2021.10/bin/../lib/gcc/arm-none-eabi/10.3.1/../../../../arm-none-eabi/lib/thumb/v6-m/nofp/libc.a
LOAD /opt/gcc-arm-none-eabi-10.3-2021.10/bin/../lib/gcc/arm-none-eabi/10.3.1/../../../../arm-none-eabi/lib/thumb/v6-m/nofp/libnosys.a
END GROUP
LOAD /opt/gcc-arm-none-eabi-10.3-2021.10/bin/../lib/gcc/arm-none-eabi/10.3.1/thumb/v6-m/nofp/crtend.o
LOAD /opt/gcc-arm-none-eabi-10.3-2021.10/bin/../lib/gcc/arm-none-eabi/10.3.1/thumb/v6-m/nofp/crtn.o
OUTPUT(cube_robot.elf elf32-littlearm)
LOAD linker stubs

.ARM.attributes
                0x0000000000000000       0x28
 .ARM.attributes
                0x0000000000000000       0x1e /opt/gcc-arm-none-eabi-10.3-2021.10/bin/../lib/gcc/arm-none-eabi/10.3.1/thumb/v6-m/nofp/crti.o
 .ARM.attributes
                0x000000000000001e       0x2c /opt/gcc-arm-none-eabi-10.3-2021.10/bin/../lib/gcc/arm-none-eabi/10.3.1/thumb/v6-m/nofp/crtbegin.o
 .ARM.attributes
                0x000000000000004a       0x2c CMakeFiles/cube_robot.dir/cube_robot.c.obj
 .ARM.attributes
                0x0000000000000076       0x2c CMakeFiles/cube_robot.dir/color_detect.c.obj
 .ARM.attributes
                0x00000000000000a2       0x2c CMakeFiles/cube_robot.dir/prun_table.c.obj
 .ARM.attributes
                0x00000000000000ce       0x2c CMakeFiles/cube_robot.dir/solve.c.obj
 .ARM.attributes
                0x00000000000000fa       0x2c CMakeFiles/cube_robot.dir/OLED.c.obj
 .ARM.attributes
                0x0000000000000126       0x2c CMakeFiles/cube_robot.dir/OLED_Data.c.obj
 .ARM.attributes
                0x0000000000000152       0x2c CMakeFiles/cube_robot.dir/home/wang/pico2/pico-sdk/src/rp2_common/hardware_gpio/gpio.c.obj
 .ARM.attributes
                0x000000000000017e       0x2c CMakeFiles/cube_robot.dir/home/wang/pico2/pico-sdk/src/rp2_common/pico_platform/platform.c.obj
 .ARM.attributes
                0x00000000000001aa       0x2c CMakeFiles/cube_robot.dir/home/wang/pico2/pico-sdk/src/rp2_common/hardware_claim/claim.c.obj
 .ARM.attributes
                0x00000000000001d6       0x2c CMakeFiles/cube_robot.dir/home/wang/pico2/pico-sdk/src/rp2_common/hardware_sync/sync.c.obj
 .ARM.attributes
                0x0000000000000202       0x2c CMakeFiles/cube_robot.dir/home/wang/pico2/pico-sdk/src/rp2_common/hardware_irq/irq.c.obj
 .ARM.attributes
                0x000000000000022e       0x22 CMakeFiles/cube_robot.dir/home/wang/pico2/pico-sdk/src/rp2_common/hardware_irq/irq_handler_chain.S.obj
 .ARM.attributes
                0x0000000000000250       0x2c CMakeFiles/cube_robot.dir/home/wang/pico2/pico-sdk/src/common/pico_sync/lock_core.c.obj
 .ARM.attributes
                0x000000000000027c       0x2c CMakeFiles/cube_robot.dir/home/wang/pico2/pico-sdk/src/common/pico_sync/mutex.c.obj
 .ARM.attributes
                0x00000000000002a8       0x2c CMakeFiles/cube_robot.dir/home/wang/pico2/pico-sdk/src/common/pico_sync/critical_section.c.obj
 .ARM.attributes
                0x00000000000002d4       0x2c CMakeFiles/cube_robot.dir/home/wang/pico2/pico-sdk/src/common/pico_time/time.c.obj
 .ARM.attributes
                0x0000000000000300       0x2c CMakeFiles/cube_robot.dir/home/wang/pico2/pico-sdk/src/rp2_common/hardware_timer/timer.c.obj
 .ARM.attributes
                0x000000000000032c       0x2c CMakeFiles/cube_robot.dir/home/wang/pico2/pico-sdk/src/common/pico_util/pheap.c.obj
 .ARM.attributes
                0x0000000000000358       0x2c CMakeFiles/cube_robot.dir/home/wang/pico2/pico-sdk/src/rp2_common/hardware_clocks/clocks.c.obj
 .ARM.attributes
                0x0000000000000384       0x2c CMakeFiles/cube_robot.dir/home/wang/pico2/pico-sdk/src/rp2_common/hardware_pll/pll.c.obj
 .ARM.attributes
                0x00000000000003b0       0x2c CMakeFiles/cube_robot.dir/home/wang/pico2/pico-sdk/src/rp2_common/hardware_watchdog/watchdog.c.obj
 .ARM.attributes
                0x00000000000003dc       0x2c CMakeFiles/cube_robot.dir/home/wang/pico2/pico-sdk/src/rp2_common/hardware_xosc/xosc.c.obj
 .ARM.attributes
                0x0000000000000408       0x2c CMakeFiles/cube_robot.dir/home/wang/pico2/pico-sdk/src/rp2_common/pico_runtime/runtime.c.obj
 .ARM.attributes
                0x0000000000000434       0x2c CMakeFiles/cube_robot.dir/home/wang/pico2/pico-sdk/src/rp2_common/pico_printf/printf.c.obj
 .ARM.attributes
                0x0000000000000460       0x22 CMakeFiles/cube_robot.dir/home/wang/pico2/pico-sdk/src/rp2_common/pico_bit_ops/bit_ops_aeabi.S.obj
 .ARM.attributes
                0x0000000000000482       0x2c CMakeFiles/cube_robot.dir/home/wang/pico2/pico-sdk/src/rp2_common/pico_bootrom/bootrom.c.obj
 .ARM.attributes
                0x00000000000004ae       0x22 CMakeFiles/cube_robot.dir/home/wang/pico2/pico-sdk/src/rp2_common/pico_divider/divider.S.obj
 .ARM.attributes
                0x00000000000004d0       0x22 CMakeFiles/cube_robot.dir/home/wang/pico2/pico-sdk/src/rp2_common/pico_double/double_aeabi.S.obj
 .ARM.attributes
                0x00000000000004f2       0x2c CMakeFiles/cube_robot.dir/home/wang/pico2/pico-sdk/src/rp2_common/pico_double/double_init_rom.c.obj
 .ARM.attributes
                0x000000000000051e       0x22 CMakeFiles/cube_robot.dir/home/wang/pico2/pico-sdk/src/rp2_common/pico_double/double_v1_rom_shim.S.obj
 .ARM.attributes
                0x0000000000000540       0x22 CMakeFiles/cube_robot.dir/home/wang/pico2/pico-sdk/src/rp2_common/pico_int64_ops/pico_int64_ops_aeabi.S.obj
 .ARM.attributes
                0x0000000000000562       0x22 CMakeFiles/cube_robot.dir/home/wang/pico2/pico-sdk/src/rp2_common/pico_float/float_aeabi.S.obj
 .ARM.attributes
                0x0000000000000584       0x2c CMakeFiles/cube_robot.dir/home/wang/pico2/pico-sdk/src/rp2_common/pico_float/float_init_rom.c.obj
 .ARM.attributes
                0x00000000000005b0       0x2c CMakeFiles/cube_robot.dir/home/wang/pico2/pico-sdk/src/rp2_common/pico_float/float_math.c.obj
 .ARM.attributes
                0x00000000000005dc       0x22 CMakeFiles/cube_robot.dir/home/wang/pico2/pico-sdk/src/rp2_common/pico_float/float_v1_rom_shim.S.obj
 .ARM.attributes
                0x00000000000005fe       0x2c CMakeFiles/cube_robot.dir/home/wang/pico2/pico-sdk/src/rp2_common/pico_malloc/pico_malloc.c.obj
 .ARM.attributes
                0x000000000000062a       0x22 CMakeFiles/cube_robot.dir/home/wang/pico2/pico-sdk/src/rp2_common/pico_mem_ops/mem_ops_aeabi.S.obj
 .ARM.attributes
                0x000000000000064c       0x22 CMakeFiles/cube_robot.dir/home/wang/pico2/pico-sdk/src/rp2_common/pico_standard_link/crt0.S.obj
 .ARM.attributes
                0x000000000000066e       0x2c CMakeFiles/cube_robot.dir/home/wang/pico2/pico-sdk/src/rp2_common/pico_standard_link/binary_info.c.obj
 .ARM.attributes
                0x000000000000069a       0x2c CMakeFiles/cube_robot.dir/home/wang/pico2/pico-sdk/src/rp2_common/pico_stdio/stdio.c.obj
 .ARM.attributes
                0x00000000000006c6       0x2c CMakeFiles/cube_robot.dir/home/wang/pico2/pico-sdk/src/rp2_common/pico_stdio_usb/reset_interface.c.obj
 .ARM.attributes
                0x00000000000006f2       0x2c CMakeFiles/cube_robot.dir/home/wang/pico2/pico-sdk/src/rp2_common/pico_stdio_usb/stdio_usb.c.obj
 .ARM.attributes
                0x000000000000071e       0x2c CMakeFiles/cube_robot.dir/home/wang/pico2/pico-sdk/src/rp2_common/pico_stdio_usb/stdio_usb_descriptors.c.obj
 .ARM.attributes
                0x000000000000074a       0x2c CMakeFiles/cube_robot.dir/home/wang/pico2/pico-sdk/src/rp2_common/pico_unique_id/unique_id.c.obj
 .ARM.attributes
                0x0000000000000776       0x2c CMakeFiles/cube_robot.dir/home/wang/pico2/pico-sdk/src/rp2_common/hardware_flash/flash.c.obj
 .ARM.attributes
                0x00000000000007a2       0x2c CMakeFiles/cube_robot.dir/home/wang/pico2/pico-sdk/lib/tinyusb/src/portable/raspberrypi/rp2040/dcd_rp2040.c.obj
 .ARM.attributes
                0x00000000000007ce       0x2c CMakeFiles/cube_robot.dir/home/wang/pico2/pico-sdk/lib/tinyusb/src/portable/raspberrypi/rp2040/rp2040_usb.c.obj
 .ARM.attributes
                0x00000000000007fa       0x2c CMakeFiles/cube_robot.dir/home/wang/pico2/pico-sdk/lib/tinyusb/src/device/usbd.c.obj
 .ARM.attributes
                0x0000000000000826       0x2c CMakeFiles/cube_robot.dir/home/wang/pico2/pico-sdk/lib/tinyusb/src/device/usbd_control.c.obj
 .ARM.attributes
                0x0000000000000852       0x2c CMakeFiles/cube_robot.dir/home/wang/pico2/pico-sdk/lib/tinyusb/src/class/cdc/cdc_device.c.obj
 .ARM.attributes
                0x000000000000087e       0x2c CMakeFiles/cube_robot.dir/home/wang/pico2/pico-sdk/lib/tinyusb/src/tusb.c.obj
 .ARM.attributes
                0x00000000000008aa       0x2c CMakeFiles/cube_robot.dir/home/wang/pico2/pico-sdk/lib/tinyusb/src/common/tusb_fifo.c.obj
 .ARM.attributes
                0x00000000000008d6       0x2c CMakeFiles/cube_robot.dir/home/wang/pico2/pico-sdk/src/rp2_common/pico_multicore/multicore.c.obj
 .ARM.attributes
                0x0000000000000902       0x22 /tmp/ccOLAkFo.o
 .ARM.attributes
                0x0000000000000924       0x1e /opt/gcc-arm-none-eabi-10.3-2021.10/bin/../lib/gcc/arm-none-eabi/10.3.1/thumb/v6-m/nofp/libgcc.a(_dvmd_tls.o)
 .ARM.attributes
                0x0000000000000942       0x2c /opt/gcc-arm-none-eabi-10.3-2021.10/bin/../lib/gcc/arm-none-eabi/10.3.1/../../../../arm-none-eabi/lib/thumb/v6-m/nofp/libc.a(lib_a-callocr.o)
 .ARM.attributes
                0x000000000000096e       0x2c /opt/gcc-arm-none-eabi-10.3-2021.10/bin/../lib/gcc/arm-none-eabi/10.3.1/../../../../arm-none-eabi/lib/thumb/v6-m/nofp/libc.a(lib_a-errno.o)
 .ARM.attributes
                0x000000000000099a       0x2c /opt/gcc-arm-none-eabi-10.3-2021.10/bin/../lib/gcc/arm-none-eabi/10.3.1/../../../../arm-none-eabi/lib/thumb/v6-m/nofp/libc.a(lib_a-impure.o)
 .ARM.attributes
                0x00000000000009c6       0x2c /opt/gcc-arm-none-eabi-10.3-2021.10/bin/../lib/gcc/arm-none-eabi/10.3.1/../../../../arm-none-eabi/lib/thumb/v6-m/nofp/libc.a(lib_a-mallocr.o)
 .ARM.attributes
                0x00000000000009f2       0x2c /opt/gcc-arm-none-eabi-10.3-2021.10/bin/../lib/gcc/arm-none-eabi/10.3.1/../../../../arm-none-eabi/lib/thumb/v6-m/nofp/libc.a(lib_a-mlock.o)
 .ARM.attributes
                0x0000000000000a1e       0x2c /opt/gcc-arm-none-eabi-10.3-2021.10/bin/../lib/gcc/arm-none-eabi/10.3.1/../../../../arm-none-eabi/lib/thumb/v6-m/nofp/libc.a(lib_a-reallocr.o)
 .ARM.attributes
                0x0000000000000a4a       0x2c /opt/gcc-arm-none-eabi-10.3-2021.10/bin/../lib/gcc/arm-none-eabi/10.3.1/../../../../arm-none-eabi/lib/thumb/v6-m/nofp/libc.a(lib_a-sbrkr.o)
 .ARM.attributes
                0x0000000000000a76       0x2c /opt/gcc-arm-none-eabi-10.3-2021.10/bin/../lib/gcc/arm-none-eabi/10.3.1/../../../../arm-none-eabi/lib/thumb/v6-m/nofp/libc.a(lib_a-strlen-stub.o)
 .ARM.attributes
                0x0000000000000aa2       0x2c /opt/gcc-arm-none-eabi-10.3-2021.10/bin/../lib/gcc/arm-none-eabi/10.3.1/../../../../arm-none-eabi/lib/thumb/v6-m/nofp/libc.a(lib_a-vsprintf.o)
 .ARM.attributes
                0x0000000000000ace       0x2c /opt/gcc-arm-none-eabi-10.3-2021.10/bin/../lib/gcc/arm-none-eabi/10.3.1/../../../../arm-none-eabi/lib/thumb/v6-m/nofp/libc.a(lib_a-freer.o)
 .ARM.attributes
                0x0000000000000afa       0x2c /opt/gcc-arm-none-eabi-10.3-2021.10/bin/../lib/gcc/arm-none-eabi/10.3.1/../../../../arm-none-eabi/lib/thumb/v6-m/nofp/libc.a(lib_a-lock.o)
 .ARM.attributes
                0x0000000000000b26       0x2c /opt/gcc-arm-none-eabi-10.3-2021.10/bin/../lib/gcc/arm-none-eabi/10.3.1/../../../../arm-none-eabi/lib/thumb/v6-m/nofp/libc.a(lib_a-memmove.o)
 .ARM.attributes
                0x0000000000000b52       0x2c /opt/gcc-arm-none-eabi-10.3-2021.10/bin/../lib/gcc/arm-none-eabi/10.3.1/../../../../arm-none-eabi/lib/thumb/v6-m/nofp/libc.a(lib_a-reent.o)
 .ARM.attributes
                0x0000000000000b7e       0x2c /opt/gcc-arm-none-eabi-10.3-2021.10/bin/../lib/gcc/arm-none-eabi/10.3.1/../../../../arm-none-eabi/lib/thumb/v6-m/nofp/libc.a(lib_a-svfprintf.o)
 .ARM.attributes
                0x0000000000000baa       0x2c /opt/gcc-arm-none-eabi-10.3-2021.10/bin/../lib/gcc/arm-none-eabi/10.3.1/../../../../arm-none-eabi/lib/thumb/v6-m/nofp/libc.a(lib_a-dtoa.o)
 .ARM.attributes
                0x0000000000000bd6       0x2c /opt/gcc-arm-none-eabi-10.3-2021.10/bin/../lib/gcc/arm-none-eabi/10.3.1/../../../../arm-none-eabi/lib/thumb/v6-m/nofp/libc.a(lib_a-localeconv.o)
 .ARM.attributes
                0x0000000000000c02       0x2c /opt/gcc-arm-none-eabi-10.3-2021.10/bin/../lib/gcc/arm-none-eabi/10.3.1/../../../../arm-none-eabi/lib/thumb/v6-m/nofp/libc.a(lib_a-memchr-stub.o)
 .ARM.attributes
                0x0000000000000c2e       0x2c /opt/gcc-arm-none-eabi-10.3-2021.10/bin/../lib/gcc/arm-none-eabi/10.3.1/../../../../arm-none-eabi/lib/thumb/v6-m/nofp/libc.a(lib_a-mprec.o)
 .ARM.attributes
                0x0000000000000c5a       0x2c /opt/gcc-arm-none-eabi-10.3-2021.10/bin/../lib/gcc/arm-none-eabi/10.3.1/../../../../arm-none-eabi/lib/thumb/v6-m/nofp/libc.a(lib_a-s_frexp.o)
 .ARM.attributes
                0x0000000000000c86       0x2c /opt/gcc-arm-none-eabi-10.3-2021.10/bin/../lib/gcc/arm-none-eabi/10.3.1/../../../../arm-none-eabi/lib/thumb/v6-m/nofp/libc.a(lib_a-strncpy.o)
 .ARM.attributes
                0x0000000000000cb2       0x2c /opt/gcc-arm-none-eabi-10.3-2021.10/bin/../lib/gcc/arm-none-eabi/10.3.1/../../../../arm-none-eabi/lib/thumb/v6-m/nofp/libc.a(lib_a-svfiprintf.o)
 .ARM.attributes
                0x0000000000000cde       0x2c /opt/gcc-arm-none-eabi-10.3-2021.10/bin/../lib/gcc/arm-none-eabi/10.3.1/../../../../arm-none-eabi/lib/thumb/v6-m/nofp/libc.a(lib_a-locale.o)
 .ARM.attributes
                0x0000000000000d0a       0x2c /opt/gcc-arm-none-eabi-10.3-2021.10/bin/../lib/gcc/arm-none-eabi/10.3.1/../../../../arm-none-eabi/lib/thumb/v6-m/nofp/libc.a(lib_a-mbtowc_r.o)
 .ARM.attributes
                0x0000000000000d36       0x2c /opt/gcc-arm-none-eabi-10.3-2021.10/bin/../lib/gcc/arm-none-eabi/10.3.1/../../../../arm-none-eabi/lib/thumb/v6-m/nofp/libc.a(lib_a-wctomb_r.o)
 .ARM.attributes
                0x0000000000000d62       0x2c /opt/gcc-arm-none-eabi-10.3-2021.10/bin/../lib/gcc/arm-none-eabi/10.3.1/../../../../arm-none-eabi/lib/thumb/v6-m/nofp/libc.a(lib_a-ctype_.o)

.comment        0x0000000000000000       0x49
 .comment       0x0000000000000000       0x49 CMakeFiles/cube_robot.dir/cube_robot.c.obj
                                         0x4a (size before relaxing)
 .comment       0x0000000000000049       0x4a CMakeFiles/cube_robot.dir/color_detect.c.obj
 .comment       0x0000000000000049       0x4a CMakeFiles/cube_robot.dir/prun_table.c.obj
 .comment       0x0000000000000049       0x4a CMakeFiles/cube_robot.dir/solve.c.obj
 .comment       0x0000000000000049       0x4a CMakeFiles/cube_robot.dir/OLED.c.obj
 .comment       0x0000000000000049       0x4a CMakeFiles/cube_robot.dir/OLED_Data.c.obj
 .comment       0x0000000000000049       0x4a CMakeFiles/cube_robot.dir/home/wang/pico2/pico-sdk/src/rp2_common/hardware_gpio/gpio.c.obj
 .comment       0x0000000000000049       0x4a CMakeFiles/cube_robot.dir/home/wang/pico2/pico-sdk/src/rp2_common/pico_platform/platform.c.obj
 .comment       0x0000000000000049       0x4a CMakeFiles/cube_robot.dir/home/wang/pico2/pico-sdk/src/rp2_common/hardware_claim/claim.c.obj
 .comment       0x0000000000000049       0x4a CMakeFiles/cube_robot.dir/home/wang/pico2/pico-sdk/src/rp2_common/hardware_sync/sync.c.obj
 .comment       0x0000000000000049       0x4a CMakeFiles/cube_robot.dir/home/wang/pico2/pico-sdk/src/rp2_common/hardware_irq/irq.c.obj
 .comment       0x0000000000000049       0x4a CMakeFiles/cube_robot.dir/home/wang/pico2/pico-sdk/src/common/pico_sync/lock_core.c.obj
 .comment       0x0000000000000049       0x4a CMakeFiles/cube_robot.dir/home/wang/pico2/pico-sdk/src/common/pico_sync/mutex.c.obj
 .comment       0x0000000000000049       0x4a CMakeFiles/cube_robot.dir/home/wang/pico2/pico-sdk/src/common/pico_sync/critical_section.c.obj
 .comment       0x0000000000000049       0x4a CMakeFiles/cube_robot.dir/home/wang/pico2/pico-sdk/src/common/pico_time/time.c.obj
 .comment       0x0000000000000049       0x4a CMakeFiles/cube_robot.dir/home/wang/pico2/pico-sdk/src/rp2_common/hardware_timer/timer.c.obj
 .comment       0x0000000000000049       0x4a CMakeFiles/cube_robot.dir/home/wang/pico2/pico-sdk/src/common/pico_util/pheap.c.obj
 .comment       0x0000000000000049       0x4a CMakeFiles/cube_robot.dir/home/wang/pico2/pico-sdk/src/rp2_common/hardware_clocks/clocks.c.obj
 .comment       0x0000000000000049       0x4a CMakeFiles/cube_robot.dir/home/wang/pico2/pico-sdk/src/rp2_common/hardware_pll/pll.c.obj
 .comment       0x0000000000000049       0x4a CMakeFiles/cube_robot.dir/home/wang/pico2/pico-sdk/src/rp2_common/hardware_watchdog/watchdog.c.obj
 .comment       0x0000000000000049       0x4a CMakeFiles/cube_robot.dir/home/wang/pico2/pico-sdk/src/rp2_common/hardware_xosc/xosc.c.obj
 .comment       0x0000000000000049       0x4a CMakeFiles/cube_robot.dir/home/wang/pico2/pico-sdk/src/rp2_common/pico_runtime/runtime.c.obj
 .comment       0x0000000000000049       0x4a CMakeFiles/cube_robot.dir/home/wang/pico2/pico-sdk/src/rp2_common/pico_printf/printf.c.obj
 .comment       0x0000000000000049       0x4a CMakeFiles/cube_robot.dir/home/wang/pico2/pico-sdk/src/rp2_common/pico_bootrom/bootrom.c.obj
 .comment       0x0000000000000049       0x4a CMakeFiles/cube_robot.dir/home/wang/pico2/pico-sdk/src/rp2_common/pico_double/double_init_rom.c.obj
 .comment       0x0000000000000049       0x4a CMakeFiles/cube_robot.dir/home/wang/pico2/pico-sdk/src/rp2_common/pico_float/float_init_rom.c.obj
 .comment       0x0000000000000049       0x4a CMakeFiles/cube_robot.dir/home/wang/pico2/pico-sdk/src/rp2_common/pico_float/float_math.c.obj
 .comment       0x0000000000000049       0x4a CMakeFiles/cube_robot.dir/home/wang/pico2/pico-sdk/src/rp2_common/pico_malloc/pico_malloc.c.obj
 .comment       0x0000000000000049       0x4a CMakeFiles/cube_robot.dir/home/wang/pico2/pico-sdk/src/rp2_common/pico_standard_link/binary_info.c.obj
 .comment       0x0000000000000049       0x4a CMakeFiles/cube_robot.dir/home/wang/pico2/pico-sdk/src/rp2_common/pico_stdio/stdio.c.obj
 .comment       0x0000000000000049       0x4a CMakeFiles/cube_robot.dir/home/wang/pico2/pico-sdk/src/rp2_common/pico_stdio_usb/reset_interface.c.obj
 .comment       0x0000000000000049       0x4a CMakeFiles/cube_robot.dir/home/wang/pico2/pico-sdk/src/rp2_common/pico_stdio_usb/stdio_usb.c.obj
 .comment       0x0000000000000049       0x4a CMakeFiles/cube_robot.dir/home/wang/pico2/pico-sdk/src/rp2_common/pico_stdio_usb/stdio_usb_descriptors.c.obj
 .comment       0x0000000000000049       0x4a CMakeFiles/cube_robot.dir/home/wang/pico2/pico-sdk/src/rp2_common/pico_unique_id/unique_id.c.obj
 .comment       0x0000000000000049       0x4a CMakeFiles/cube_robot.dir/home/wang/pico2/pico-sdk/src/rp2_common/hardware_flash/flash.c.obj
 .comment       0x0000000000000049       0x4a CMakeFiles/cube_robot.dir/home/wang/pico2/pico-sdk/lib/tinyusb/src/portable/raspberrypi/rp2040/dcd_rp2040.c.obj
 .comment       0x0000000000000049       0x4a CMakeFiles/cube_robot.dir/home/wang/pico2/pico-sdk/lib/tinyusb/src/portable/raspberrypi/rp2040/rp2040_usb.c.obj
 .comment       0x0000000000000049       0x4a CMakeFiles/cube_robot.dir/home/wang/pico2/pico-sdk/lib/tinyusb/src/device/usbd.c.obj
 .comment       0x0000000000000049       0x4a CMakeFiles/cube_robot.dir/home/wang/pico2/pico-sdk/lib/tinyusb/src/device/usbd_control.c.obj
 .comment       0x0000000000000049       0x4a CMakeFiles/cube_robot.dir/home/wang/pico2/pico-sdk/lib/tinyusb/src/class/cdc/cdc_device.c.obj
 .comment       0x0000000000000049       0x4a CMakeFiles/cube_robot.dir/home/wang/pico2/pico-sdk/lib/tinyusb/src/tusb.c.obj
 .comment       0x0000000000000049       0x4a CMakeFiles/cube_robot.dir/home/wang/pico2/pico-sdk/lib/tinyusb/src/common/tusb_fifo.c.obj
 .comment       0x0000000000000049       0x4a CMakeFiles/cube_robot.dir/home/wang/pico2/pico-sdk/src/rp2_common/pico_multicore/multicore.c.obj

.debug_frame    0x0000000000000000      0x820
 .debug_frame   0x0000000000000000       0x2c /opt/gcc-arm-none-eabi-10.3-2021.10/bin/../lib/gcc/arm-none-eabi/10.3.1/../../../../arm-none-eabi/lib/thumb/v6-m/nofp/libc.a(lib_a-callocr.o)
 .debug_frame   0x000000000000002c       0x20 /opt/gcc-arm-none-eabi-10.3-2021.10/bin/../lib/gcc/arm-none-eabi/10.3.1/../../../../arm-none-eabi/lib/thumb/v6-m/nofp/libc.a(lib_a-errno.o)
 .debug_frame   0x000000000000004c       0x3c /opt/gcc-arm-none-eabi-10.3-2021.10/bin/../lib/gcc/arm-none-eabi/10.3.1/../../../../arm-none-eabi/lib/thumb/v6-m/nofp/libc.a(lib_a-mallocr.o)
 .debug_frame   0x0000000000000088       0x40 /opt/gcc-arm-none-eabi-10.3-2021.10/bin/../lib/gcc/arm-none-eabi/10.3.1/../../../../arm-none-eabi/lib/thumb/v6-m/nofp/libc.a(lib_a-mlock.o)
 .debug_frame   0x00000000000000c8       0x3c /opt/gcc-arm-none-eabi-10.3-2021.10/bin/../lib/gcc/arm-none-eabi/10.3.1/../../../../arm-none-eabi/lib/thumb/v6-m/nofp/libc.a(lib_a-reallocr.o)
 .debug_frame   0x0000000000000104       0x2c /opt/gcc-arm-none-eabi-10.3-2021.10/bin/../lib/gcc/arm-none-eabi/10.3.1/../../../../arm-none-eabi/lib/thumb/v6-m/nofp/libc.a(lib_a-sbrkr.o)
 .debug_frame   0x0000000000000130       0x28 /opt/gcc-arm-none-eabi-10.3-2021.10/bin/../lib/gcc/arm-none-eabi/10.3.1/../../../../arm-none-eabi/lib/thumb/v6-m/nofp/libc.a(lib_a-strlen-stub.o)
 .debug_frame   0x0000000000000158       0x44 /opt/gcc-arm-none-eabi-10.3-2021.10/bin/../lib/gcc/arm-none-eabi/10.3.1/../../../../arm-none-eabi/lib/thumb/v6-m/nofp/libc.a(lib_a-vsprintf.o)
 .debug_frame   0x000000000000019c       0x54 /opt/gcc-arm-none-eabi-10.3-2021.10/bin/../lib/gcc/arm-none-eabi/10.3.1/../../../../arm-none-eabi/lib/thumb/v6-m/nofp/libc.a(lib_a-freer.o)
 .debug_frame   0x00000000000001f0       0xb0 /opt/gcc-arm-none-eabi-10.3-2021.10/bin/../lib/gcc/arm-none-eabi/10.3.1/../../../../arm-none-eabi/lib/thumb/v6-m/nofp/libc.a(lib_a-lock.o)
 .debug_frame   0x00000000000002a0       0x30 /opt/gcc-arm-none-eabi-10.3-2021.10/bin/../lib/gcc/arm-none-eabi/10.3.1/../../../../arm-none-eabi/lib/thumb/v6-m/nofp/libc.a(lib_a-memmove.o)
 .debug_frame   0x00000000000002d0       0x50 /opt/gcc-arm-none-eabi-10.3-2021.10/bin/../lib/gcc/arm-none-eabi/10.3.1/../../../../arm-none-eabi/lib/thumb/v6-m/nofp/libc.a(lib_a-reent.o)
 .debug_frame   0x0000000000000320       0x3c /opt/gcc-arm-none-eabi-10.3-2021.10/bin/../lib/gcc/arm-none-eabi/10.3.1/../../../../arm-none-eabi/lib/thumb/v6-m/nofp/libc.a(lib_a-svfprintf.o)
 .debug_frame   0x000000000000035c       0x68 /opt/gcc-arm-none-eabi-10.3-2021.10/bin/../lib/gcc/arm-none-eabi/10.3.1/../../../../arm-none-eabi/lib/thumb/v6-m/nofp/libc.a(lib_a-dtoa.o)
 .debug_frame   0x00000000000003c4       0x40 /opt/gcc-arm-none-eabi-10.3-2021.10/bin/../lib/gcc/arm-none-eabi/10.3.1/../../../../arm-none-eabi/lib/thumb/v6-m/nofp/libc.a(lib_a-localeconv.o)
 .debug_frame   0x0000000000000404       0x2c /opt/gcc-arm-none-eabi-10.3-2021.10/bin/../lib/gcc/arm-none-eabi/10.3.1/../../../../arm-none-eabi/lib/thumb/v6-m/nofp/libc.a(lib_a-memchr-stub.o)
 .debug_frame   0x0000000000000430      0x258 /opt/gcc-arm-none-eabi-10.3-2021.10/bin/../lib/gcc/arm-none-eabi/10.3.1/../../../../arm-none-eabi/lib/thumb/v6-m/nofp/libc.a(lib_a-mprec.o)
 .debug_frame   0x0000000000000688       0x2c /opt/gcc-arm-none-eabi-10.3-2021.10/bin/../lib/gcc/arm-none-eabi/10.3.1/../../../../arm-none-eabi/lib/thumb/v6-m/nofp/libc.a(lib_a-s_frexp.o)
 .debug_frame   0x00000000000006b4       0x30 /opt/gcc-arm-none-eabi-10.3-2021.10/bin/../lib/gcc/arm-none-eabi/10.3.1/../../../../arm-none-eabi/lib/thumb/v6-m/nofp/libc.a(lib_a-strncpy.o)
 .debug_frame   0x00000000000006e4       0x68 /opt/gcc-arm-none-eabi-10.3-2021.10/bin/../lib/gcc/arm-none-eabi/10.3.1/../../../../arm-none-eabi/lib/thumb/v6-m/nofp/libc.a(lib_a-svfiprintf.o)
 .debug_frame   0x000000000000074c       0x58 /opt/gcc-arm-none-eabi-10.3-2021.10/bin/../lib/gcc/arm-none-eabi/10.3.1/../../../../arm-none-eabi/lib/thumb/v6-m/nofp/libc.a(lib_a-locale.o)
 .debug_frame   0x00000000000007a4       0x40 /opt/gcc-arm-none-eabi-10.3-2021.10/bin/../lib/gcc/arm-none-eabi/10.3.1/../../../../arm-none-eabi/lib/thumb/v6-m/nofp/libc.a(lib_a-mbtowc_r.o)
 .debug_frame   0x00000000000007e4       0x3c /opt/gcc-arm-none-eabi-10.3-2021.10/bin/../lib/gcc/arm-none-eabi/10.3.1/../../../../arm-none-eabi/lib/thumb/v6-m/nofp/libc.a(lib_a-wctomb_r.o)
